// SPDX-License-Identifier: GPL-2.0
/*
 * Copyright (c) 2020 Rockchip Electronics Co. Ltd.
 *
 * Author: Zorro Liu <zorro.liu@rock-chips.com>
 */

	.arch armv8-a
	.file	"ebc_dev.c"
	.text
.Ltext0:
	.cfi_sections	.debug_frame
#APP
	.section	".initcall6s.init", "a"	
__initcall_ebc_init6s:			
.long	ebc_init - .			
.previous					

#NO_APP
	.align	2
	.p2align 3,,7
	.type	get_overlay_image_area, %function
get_overlay_image_area:
.LFB2822:
	.file 1 "drivers/gpu/drm/rockchip/ebc-dev/ebc_dev.c"
	.loc 1 760 0
	.cfi_startproc
.LVL0:
	stp	x29, x30, [sp, -128]!
	.cfi_def_cfa_offset 128
	.cfi_offset 29, -128
	.cfi_offset 30, -120
	.loc 1 761 0
	adrp	x6, .LANCHOR0
	.loc 1 760 0
	add	x29, sp, 0
	.cfi_def_cfa_register 29
	stp	x25, x26, [sp, 64]
	.cfi_offset 25, -64
	.cfi_offset 26, -56
	.loc 1 761 0
	ldr	x26, [x6, #:lo12:.LANCHOR0]
	.loc 1 760 0
	str	x0, [x29, 104]
	.loc 1 784 0
	ldr	x0, [x5, 240]
.LVL1:
	.loc 1 776 0
	add	x26, x26, 24
	.loc 1 760 0
	stp	x19, x20, [sp, 16]
	stp	x21, x22, [sp, 32]
	stp	x27, x28, [sp, 80]
	stp	x23, x24, [sp, 48]
	.cfi_offset 19, -112
	.cfi_offset 20, -104
	.cfi_offset 21, -96
	.cfi_offset 22, -88
	.cfi_offset 27, -48
	.cfi_offset 28, -40
	.cfi_offset 23, -80
	.cfi_offset 24, -72
	.loc 1 789 0
	ldr	w19, [x5, 96]
	.loc 1 786 0
	ldp	w7, w23, [x0, 48]
	.loc 1 789 0
	add	w27, w19, 7
	.loc 1 776 0
	ldr	w6, [x26, 156]
	str	w6, [x29, 124]
	.loc 1 784 0
	cmp	w7, 0
	.loc 1 787 0
	ldp	w6, w28, [x0, 56]
	.loc 1 784 0
	add	w25, w7, 7
	csel	w25, w25, w7, lt
	.loc 1 790 0
	ldr	w0, [x5, 92]
	.loc 1 785 0
	cmp	w6, 0
	add	w21, w6, 7
	csel	w21, w21, w6, lt
	.loc 1 789 0
	cmp	w19, 0
	csel	w27, w27, w19, lt
	.loc 1 785 0
	asr	w21, w21, 3
	add	w21, w21, 1
.LVL2:
	.loc 1 789 0
	asr	w27, w27, 3
.LVL3:
	.loc 1 792 0
	cmp	w21, w27
	sub	w6, w27, #1
	csel	w21, w6, w21, ge
.LVL4:
	.loc 1 794 0
	cmp	w28, w0
	sub	w0, w0, #1
.LVL5:
	csel	w28, w0, w28, ge
.LVL6:
	.loc 1 796 0
	cmp	w28, w23
	blt	.L1
	asr	w25, w25, 3
.LVL7:
	.loc 1 815 0
	mov	w22, 1
	lsl	w0, w25, 1
	str	w0, [x29, 120]
	lsl	w0, w25, 3
	str	w0, [x29, 116]
	.loc 1 797 0
	ldr	w0, [x29, 124]
	mul	w20, w23, w27
	.loc 1 896 0
	mov	w30, w22
	.loc 1 797 0
	cbz	w0, .L6
.LVL8:
	.p2align 2
.L50:
	.loc 1 798 0
	ldp	w0, w15, [x26, 84]
.LVL9:
	sub	w15, w15, #1
	sub	w15, w15, w23
	mul	w15, w15, w0
	ldr	x0, [x29, 104]
.LVL10:
	lsr	w15, w15, 2
	add	x15, x0, x15
.LVL11:
.L7:
	.loc 1 803 0
	mul	w19, w23, w19
	.loc 1 806 0
	mov	w10, w25
	cmp	w21, w25
	ldp	w14, w11, [x29, 116]
	.loc 1 803 0
	sxtw	x19, w19
	.loc 1 806 0
	blt	.L20
.LVL12:
	.p2align 2
.L37:
	.loc 1 810 0
	sbfiz	x0, x10, 3, 32
.LVL13:
	add	x0, x0, x20, sxtw 3
	ldr	x8, [x1, x0]
	.loc 1 811 0
	ldr	x7, [x2, x0]
	.loc 1 814 0
	cmp	x8, x7
	beq	.L10
	add	x9, x19, x14, sxtw
	.loc 1 809 0
	ldrb	w13, [x15, w11, sxtw]
	.loc 1 816 0
	eor	x6, x8, x7
.LVL14:
	.loc 1 815 0
	str	w22, [x5, 60]
	.loc 1 818 0
	and	x0, x6, 255
	.loc 1 807 0
	add	x12, x15, x11, sxtw
	.loc 1 818 0
	cmp	x0, 0
	ldrb	w0, [x3, x9]
	.loc 1 813 0
	add	x16, x4, x9
	.loc 1 818 0
	ccmp	w0, 0, 0, ne
	.loc 1 812 0
	add	x0, x3, x9
.LVL15:
	.loc 1 818 0
	bne	.L11
	.loc 1 820 0
	ldrb	w17, [x4, x9]
	.loc 1 821 0
	ubfx	x24, x8, 3, 5
	.loc 1 820 0
	add	x17, x17, 16
	.loc 1 821 0
	ldr	x18, [x5, x17, lsl 3]
	lsl	x17, x7, 2
	and	x17, x17, 992
	orr	x17, x17, x24
	.loc 1 822 0
	ldrb	w17, [x18, x17]
	.loc 1 823 0
	strb	w22, [x3, x9]
	.loc 1 822 0
	orr	w13, w17, w13
.L11:
	.loc 1 828 0
	ldrb	w9, [x0, 1]
	tst	x6, 65280
	ccmp	w9, 0, 0, ne
	bne	.L12
	.loc 1 830 0
	ldrb	w9, [x16, 1]
	.loc 1 831 0
	ubfx	x18, x8, 11, 5
	.loc 1 830 0
	add	x9, x9, 16
	.loc 1 831 0
	ldr	x17, [x5, x9, lsl 3]
	lsr	x9, x7, 6
	and	x9, x9, 992
	orr	x9, x9, x18
	.loc 1 832 0
	ldrb	w9, [x17, x9]
	.loc 1 833 0
	strb	w30, [x0, 1]
	.loc 1 832 0
	orr	w13, w13, w9, lsl 2
	and	w13, w13, 255
.L12:
	.loc 1 838 0
	ldrb	w9, [x0, 2]
	tst	x6, 16711680
	ccmp	w9, 0, 0, ne
	bne	.L13
	.loc 1 840 0
	ldrb	w9, [x16, 2]
	.loc 1 841 0
	ubfx	x18, x8, 19, 5
	.loc 1 840 0
	add	x9, x9, 16
	.loc 1 841 0
	ldr	x17, [x5, x9, lsl 3]
	lsr	x9, x7, 14
	and	x9, x9, 992
	orr	x9, x9, x18
	.loc 1 842 0
	ldrb	w9, [x17, x9]
	.loc 1 843 0
	strb	w30, [x0, 2]
	.loc 1 842 0
	orr	w13, w13, w9, lsl 4
	and	w13, w13, 255
.L13:
	.loc 1 848 0
	ldrb	w9, [x0, 3]
	tst	x6, 4278190080
	ccmp	w9, 0, 0, ne
	bne	.L14
	.loc 1 850 0
	ldrb	w9, [x16, 3]
	.loc 1 851 0
	lsr	w18, w8, 27
	.loc 1 850 0
	add	x9, x9, 16
	.loc 1 851 0
	ldr	x17, [x5, x9, lsl 3]
	lsr	x9, x7, 22
	and	x9, x9, 992
	orr	x9, x9, x18
	.loc 1 852 0
	ldrb	w9, [x17, x9]
	.loc 1 853 0
	strb	w30, [x0, 3]
	.loc 1 852 0
	orr	w13, w13, w9, lsl 6
	and	w13, w13, 255
.L14:
	.loc 1 855 0
	strb	w13, [x12]
	.loc 1 861 0
	tst	x6, 1095216660480
	.loc 1 857 0
	ldrb	w9, [x12, 1]
	.loc 1 861 0
	ldrb	w13, [x0, 4]
	ccmp	w13, 0, 0, ne
	bne	.L15
	.loc 1 863 0
	ldrb	w13, [x16, 4]
	.loc 1 864 0
	ubfx	x18, x8, 35, 5
	.loc 1 863 0
	add	x13, x13, 16
	.loc 1 864 0
	ldr	x17, [x5, x13, lsl 3]
	lsr	x13, x7, 30
	and	x13, x13, 992
	orr	x13, x13, x18
	.loc 1 865 0
	ldrb	w13, [x17, x13]
	.loc 1 866 0
	strb	w30, [x0, 4]
	.loc 1 865 0
	orr	w9, w13, w9
.L15:
	.loc 1 871 0
	ldrb	w13, [x0, 5]
	tst	x6, 280375465082880
	ccmp	w13, 0, 0, ne
	bne	.L16
	.loc 1 873 0
	ldrb	w13, [x16, 5]
	.loc 1 874 0
	ubfx	x18, x8, 43, 5
	.loc 1 873 0
	add	x13, x13, 16
	.loc 1 874 0
	ldr	x17, [x5, x13, lsl 3]
	lsr	x13, x7, 38
	and	x13, x13, 992
	orr	x13, x13, x18
	.loc 1 875 0
	ldrb	w13, [x17, x13]
	.loc 1 876 0
	strb	w30, [x0, 5]
	.loc 1 875 0
	orr	w9, w9, w13, lsl 2
	and	w9, w9, 255
.L16:
	.loc 1 881 0
	ldrb	w13, [x0, 6]
	tst	x6, 71776119061217280
	ccmp	w13, 0, 0, ne
	bne	.L17
	.loc 1 883 0
	ldrb	w13, [x16, 6]
	.loc 1 884 0
	ubfx	x18, x8, 51, 5
	.loc 1 883 0
	add	x13, x13, 16
	.loc 1 884 0
	ldr	x17, [x5, x13, lsl 3]
	lsr	x13, x7, 46
	and	x13, x13, 992
	orr	x13, x13, x18
	.loc 1 885 0
	ldrb	w13, [x17, x13]
	.loc 1 886 0
	strb	w30, [x0, 6]
	.loc 1 885 0
	orr	w9, w9, w13, lsl 4
	and	w9, w9, 255
.L17:
	.loc 1 891 0
	tst	x6, -72057594037927936
	ldrb	w6, [x0, 7]
.LVL16:
	ccmp	w6, 0, 0, ne
	bne	.L18
	.loc 1 893 0
	ldrb	w6, [x16, 7]
	.loc 1 894 0
	lsr	x7, x7, 54
.LVL17:
	and	x7, x7, 992
	.loc 1 893 0
	add	x6, x6, 16
	.loc 1 894 0
	ldr	x6, [x5, x6, lsl 3]
	add	x8, x6, x8, lsr 59
.LVL18:
	.loc 1 895 0
	ldrb	w6, [x8, x7]
	.loc 1 896 0
	strb	w30, [x0, 7]
	.loc 1 895 0
	orr	w9, w9, w6, lsl 6
	and	w9, w9, 255
.LVL19:
.L18:
	.loc 1 898 0
	strb	w9, [x12, 1]
.L10:
	.loc 1 806 0 discriminator 2
	add	w10, w10, 1
	add	w11, w11, 2
	add	w14, w14, 8
	cmp	w21, w10
	bge	.L37
.LVL20:
.L20:
	.loc 1 796 0
	add	w23, w23, 1
	add	w20, w20, w27
	cmp	w28, w23
	blt	.L1
	.loc 1 797 0
	ldr	w0, [x29, 124]
.LVL21:
	ldr	w19, [x5, 96]
	cbnz	w0, .L50
.L6:
	.loc 1 800 0
	ldr	w15, [x26, 84]
.LVL22:
	ldr	x0, [x29, 104]
.LVL23:
	mul	w15, w23, w15
	lsr	w15, w15, 2
	add	x15, x0, x15
.LVL24:
	b	.L7
.LVL25:
.L1:
	.loc 1 902 0
	ldp	x19, x20, [sp, 16]
	ldp	x21, x22, [sp, 32]
.LVL26:
	ldp	x23, x24, [sp, 48]
.LVL27:
	ldp	x25, x26, [sp, 64]
.LVL28:
	ldp	x27, x28, [sp, 80]
.LVL29:
	ldp	x29, x30, [sp], 128
	.cfi_restore 30
	.cfi_restore 29
	.cfi_restore 27
	.cfi_restore 28
	.cfi_restore 25
	.cfi_restore 26
	.cfi_restore 23
	.cfi_restore 24
	.cfi_restore 21
	.cfi_restore 22
	.cfi_restore 19
	.cfi_restore 20
	.cfi_def_cfa 31, 0
	ret
	.cfi_endproc
.LFE2822:
	.size	get_overlay_image_area, .-get_overlay_image_area
	.align	2
	.p2align 3,,7
	.type	get_auto_image, %function
get_auto_image:
.LFB2825:
	.loc 1 1050 0
	.cfi_startproc
.LVL30:
	stp	x29, x30, [sp, -48]!
	.cfi_def_cfa_offset 48
	.cfi_offset 29, -48
	.cfi_offset 30, -40
	.loc 1 1051 0
	adrp	x6, .LANCHOR0
	.loc 1 1070 0
	cmp	w5, 2
	.loc 1 1050 0
	add	x29, sp, 0
	.cfi_def_cfa_register 29
	.loc 1 1051 0
	ldr	x17, [x6, #:lo12:.LANCHOR0]
	.loc 1 1050 0
	stp	x19, x20, [sp, 16]
	.cfi_offset 19, -32
	.cfi_offset 20, -24
	.loc 1 1065 0
	add	x19, x4, 60
.LVL31:
	.loc 1 1061 0
	add	x17, x17, 24
	.loc 1 1050 0
	stp	x21, x22, [sp, 32]
	.cfi_offset 21, -16
	.cfi_offset 22, -8
	.loc 1 1058 0
	ldrb	w13, [x4, 56]
.LVL32:
	.loc 1 1068 0
	ldp	w6, w22, [x17, 84]
	.loc 1 1061 0
	ldr	w30, [x17, 156]
	.loc 1 1067 0
	lsr	w14, w6, 3
	.loc 1 1070 0
	beq	.L106
	.loc 1 1073 0
	cmp	w5, 3
	.loc 1 1080 0
	mov	w18, 0
.LVL33:
	.loc 1 1073 0
	beq	.L107
.LVL34:
.L55:
	.loc 1 1083 0 discriminator 1
	cmp	w18, w22
	bge	.L79
	sub	w16, w14, #1
	.loc 1 1083 0 is_stmt 0
	mov	w8, 0
.LVL35:
	add	x16, x16, 1
	lsl	x16, x16, 3
	.loc 1 1084 0 is_stmt 1
	cbz	w30, .L56
.LVL36:
	.p2align 2
.L116:
	.loc 1 1085 0
	ldr	w10, [x17, 88]
	sub	w10, w10, #1
	sub	w10, w10, w18
	mul	w10, w10, w6
	lsr	w10, w10, 2
	add	x10, x0, x10
.LVL37:
.L59:
	add	x6, x3, 8
	add	x10, x10, 2
.LVL38:
	.loc 1 1089 0 discriminator 1
	mov	x9, 0
	cbz	w14, .L58
	.p2align 2
.L95:
	.loc 1 1092 0
	ldr	x7, [x1, x9, lsl 3]
	.loc 1 1093 0
	ldr	x5, [x2, x9, lsl 3]
.LVL39:
	.loc 1 1094 0
	cmp	x7, x5
	beq	.L60
	.loc 1 1096 0
	eor	x8, x7, x5
.LVL40:
	.loc 1 1091 0
	mov	w11, 0
	.loc 1 1097 0
	and	x12, x8, 255
	cbz	x12, .L61
	.loc 1 1098 0
	ldrb	w12, [x6, -8]
	.loc 1 1100 0
	lsl	x11, x5, 2
	and	x20, x11, 992
	ldr	x21, [x4, 128]
	ubfx	x11, x7, 3, 5
	orr	x11, x20, x11
	.loc 1 1099 0
	lsl	w20, w12, 10
	.loc 1 1100 0
	add	x11, x21, x11
	.loc 1 1102 0
	add	w12, w12, 1
	and	w12, w12, 255
	.loc 1 1103 0
	cmp	w13, w12
	.loc 1 1100 0
	ldrb	w11, [x11, w20, sxtw]
	.loc 1 1103 0
	beq	.L108
.L62:
	.loc 1 1107 0
	strb	w12, [x6, -8]
.L61:
	.loc 1 1110 0
	tst	x8, 65280
	beq	.L63
	.loc 1 1111 0
	ldrb	w12, [x6, -7]
	.loc 1 1113 0
	lsr	x20, x5, 6
	and	x21, x20, 992
	ldr	x15, [x4, 128]
	ubfx	x20, x7, 11, 5
	orr	x20, x21, x20
	.loc 1 1112 0
	lsl	w21, w12, 10
	.loc 1 1113 0
	add	x20, x15, x20
	.loc 1 1115 0
	add	w12, w12, 1
	and	w12, w12, 255
	.loc 1 1116 0
	cmp	w13, w12
	.loc 1 1114 0
	ldrb	w20, [x20, w21, sxtw]
	orr	w11, w11, w20, lsl 2
	and	w11, w11, 255
	.loc 1 1116 0
	beq	.L109
.L64:
	.loc 1 1120 0
	strb	w12, [x6, -7]
.L63:
	.loc 1 1123 0
	tst	x8, 16711680
	beq	.L65
	.loc 1 1124 0
	ldrb	w12, [x6, -6]
	.loc 1 1126 0
	lsr	x20, x5, 14
	and	x21, x20, 992
	ldr	x15, [x4, 128]
	ubfx	x20, x7, 19, 5
	orr	x20, x21, x20
	.loc 1 1125 0
	lsl	w21, w12, 10
	.loc 1 1126 0
	add	x20, x15, x20
	.loc 1 1128 0
	add	w12, w12, 1
	and	w12, w12, 255
	.loc 1 1129 0
	cmp	w13, w12
	.loc 1 1127 0
	ldrb	w20, [x20, w21, sxtw]
	orr	w11, w11, w20, lsl 4
	and	w11, w11, 255
	.loc 1 1129 0
	beq	.L110
.L66:
	.loc 1 1133 0
	strb	w12, [x6, -6]
.L65:
	.loc 1 1136 0
	tst	x8, 4278190080
	beq	.L67
	.loc 1 1137 0
	ldrb	w12, [x6, -5]
	.loc 1 1139 0
	lsr	x20, x5, 22
	and	x21, x20, 992
	ldr	x15, [x4, 128]
	lsr	w20, w7, 27
	orr	x20, x21, x20
	.loc 1 1138 0
	lsl	w21, w12, 10
	.loc 1 1139 0
	add	x20, x15, x20
	.loc 1 1141 0
	add	w12, w12, 1
	and	w12, w12, 255
	.loc 1 1142 0
	cmp	w13, w12
	.loc 1 1140 0
	ldrb	w20, [x20, w21, sxtw]
	orr	w11, w11, w20, lsl 6
	and	w11, w11, 255
	.loc 1 1142 0
	beq	.L111
.L68:
	.loc 1 1146 0
	strb	w12, [x6, -5]
.L67:
	.loc 1 1149 0
	strb	w11, [x10, -2]
	.loc 1 1152 0
	tst	x8, 1095216660480
	.loc 1 1151 0
	mov	w11, 0
	.loc 1 1152 0
	beq	.L69
	.loc 1 1153 0
	ldrb	w12, [x6, -4]
	.loc 1 1155 0
	lsr	x11, x5, 30
	and	x20, x11, 992
	ldr	x21, [x4, 128]
	ubfx	x11, x7, 35, 5
	orr	x11, x20, x11
	.loc 1 1154 0
	lsl	w20, w12, 10
	.loc 1 1155 0
	add	x11, x21, x11
	.loc 1 1157 0
	add	w12, w12, 1
	and	w12, w12, 255
	.loc 1 1158 0
	cmp	w13, w12
	.loc 1 1155 0
	ldrb	w11, [x11, w20, sxtw]
	.loc 1 1158 0
	beq	.L112
.L70:
	.loc 1 1162 0
	strb	w12, [x6, -4]
.L69:
	.loc 1 1165 0
	tst	x8, 280375465082880
	beq	.L71
	.loc 1 1166 0
	ldrb	w12, [x6, -3]
	.loc 1 1168 0
	lsr	x20, x5, 38
	and	x21, x20, 992
	ldr	x15, [x4, 128]
	ubfx	x20, x7, 43, 5
	orr	x20, x21, x20
	.loc 1 1167 0
	lsl	w21, w12, 10
	.loc 1 1168 0
	add	x20, x15, x20
	.loc 1 1170 0
	add	w12, w12, 1
	and	w12, w12, 255
	.loc 1 1171 0
	cmp	w13, w12
	.loc 1 1169 0
	ldrb	w20, [x20, w21, sxtw]
	orr	w11, w11, w20, lsl 2
	and	w11, w11, 255
	.loc 1 1171 0
	beq	.L113
.L72:
	.loc 1 1175 0
	strb	w12, [x6, -3]
.L71:
	.loc 1 1178 0
	tst	x8, 71776119061217280
	beq	.L73
	.loc 1 1179 0
	ldrb	w12, [x6, -2]
	.loc 1 1181 0
	lsr	x20, x5, 46
	and	x21, x20, 992
	ldr	x15, [x4, 128]
	ubfx	x20, x7, 51, 5
	orr	x20, x21, x20
	.loc 1 1180 0
	lsl	w21, w12, 10
	.loc 1 1181 0
	add	x20, x15, x20
	.loc 1 1183 0
	add	w12, w12, 1
	and	w12, w12, 255
	.loc 1 1184 0
	cmp	w13, w12
	.loc 1 1182 0
	ldrb	w20, [x20, w21, sxtw]
	orr	w11, w11, w20, lsl 4
	and	w11, w11, 255
	.loc 1 1184 0
	beq	.L114
.L74:
	.loc 1 1188 0
	strb	w12, [x6, -2]
.L73:
	.loc 1 1191 0
	tst	x8, -72057594037927936
	beq	.L75
	.loc 1 1192 0
	ldrb	w20, [x6, -1]
	.loc 1 1194 0
	lsr	x21, x5, 54
	ldr	x8, [x4, 128]
.LVL41:
	and	x21, x21, 992
	.loc 1 1196 0
	add	w12, w20, 1
	.loc 1 1193 0
	ubfiz	x20, x20, 10, 8
	.loc 1 1196 0
	and	w12, w12, 255
	.loc 1 1194 0
	add	x8, x8, x20
	.loc 1 1197 0
	cmp	w13, w12
	.loc 1 1194 0
	add	x8, x8, x7, lsr 59
	.loc 1 1195 0
	ldrb	w8, [x8, x21]
	orr	w11, w11, w8, lsl 6
	and	w11, w11, 255
	.loc 1 1197 0
	beq	.L115
.L76:
	.loc 1 1201 0
	strb	w12, [x6, -1]
.LVL42:
.L75:
	.loc 1 1204 0
	str	x5, [x2, x9, lsl 3]
	.loc 1 1095 0
	mov	w8, 1
.LVL43:
	.loc 1 1205 0
	strb	w11, [x10, -1]
.L77:
	add	x9, x9, 1
	add	x6, x6, 8
	add	x10, x10, 2
	.loc 1 1089 0 discriminator 2
	cmp	w14, w9
	bgt	.L95
	add	x3, x3, x16
	add	x2, x2, x16
	add	x1, x1, x16
.LVL44:
.L58:
	.loc 1 1083 0
	add	w18, w18, 1
	cmp	w22, w18
	beq	.L53
	ldr	w6, [x17, 84]
	.loc 1 1084 0
	cbnz	w30, .L116
.L56:
	.loc 1 1087 0
	mul	w10, w18, w6
	lsr	w10, w10, 2
	add	x10, x0, x10
.LVL45:
	b	.L59
.LVL46:
	.p2align 3
.L115:
	.loc 1 1199 0
	and	x5, x5, 72057594037927935
.LVL47:
	and	x7, x7, -72057594037927936
.LVL48:
	orr	x5, x7, x5
.LVL49:
	.loc 1 1198 0
	mov	w12, 0
	b	.L76
.LVL50:
	.p2align 3
.L114:
	.loc 1 1186 0
	and	x12, x7, 71776119061217280
	and	x5, x5, -71776119061217281
.LVL51:
	orr	x5, x12, x5
.LVL52:
	.loc 1 1185 0
	mov	w12, 0
	b	.L74
	.p2align 3
.L112:
	.loc 1 1160 0
	and	x12, x7, 1095216660480
	and	x5, x5, -1095216660481
.LVL53:
	orr	x5, x12, x5
.LVL54:
	.loc 1 1159 0
	mov	w12, 0
	b	.L70
	.p2align 3
.L113:
	.loc 1 1173 0
	and	x12, x7, 280375465082880
	and	x5, x5, -280375465082881
.LVL55:
	orr	x5, x12, x5
.LVL56:
	.loc 1 1172 0
	mov	w12, 0
	b	.L72
	.p2align 3
.L111:
	.loc 1 1144 0
	and	x12, x7, 4278190080
	and	x5, x5, -4278190081
.LVL57:
	orr	x5, x12, x5
.LVL58:
	.loc 1 1143 0
	mov	w12, 0
	b	.L68
	.p2align 3
.L109:
	.loc 1 1118 0
	and	x12, x7, 65280
	and	x5, x5, -65281
.LVL59:
	orr	x5, x12, x5
.LVL60:
	.loc 1 1117 0
	mov	w12, 0
	b	.L64
	.p2align 3
.L110:
	.loc 1 1131 0
	and	x12, x7, 16711680
	and	x5, x5, -16711681
.LVL61:
	orr	x5, x12, x5
.LVL62:
	.loc 1 1130 0
	mov	w12, 0
	b	.L66
	.p2align 3
.L108:
	.loc 1 1105 0
	bfi	x5, x7, 0, 8
	.loc 1 1104 0
	mov	w12, 0
	b	.L62
.LVL63:
	.p2align 3
.L60:
	.loc 1 1208 0
	strb	wzr, [x10, -2]
	.loc 1 1209 0
	strb	wzr, [x10, -1]
	b	.L77
.LVL64:
.L79:
	.loc 1 1083 0
	mov	w8, 0
.LVL65:
.L53:
	.loc 1 1216 0
	str	w8, [x19]
	.loc 1 1217 0
	ldp	x19, x20, [sp, 16]
.LVL66:
	ldp	x21, x22, [sp, 32]
.LVL67:
	ldp	x29, x30, [sp], 48
	.cfi_remember_state
	.cfi_restore 30
	.cfi_restore 29
	.cfi_restore 21
	.cfi_restore 22
	.cfi_restore 19
	.cfi_restore 20
	.cfi_def_cfa 31, 0
	ret
.LVL68:
.L106:
	.cfi_restore_state
	.loc 1 1072 0
	add	w18, w22, w22, lsr 31
	asr	w22, w18, 1
	.loc 1 1071 0
	mov	w18, 0
.LVL69:
	b	.L55
.LVL70:
.L107:
	.loc 1 1074 0
	add	w15, w22, w22, lsr 31
	.loc 1 1078 0
	add	x19, x4, 64
	.loc 1 1074 0
	asr	w18, w15, 1
	.loc 1 1075 0
	mul	w5, w14, w18
.LVL71:
	sbfiz	x5, x5, 3, 32
	add	x1, x1, x5
	.loc 1 1076 0
	add	x2, x2, x5
	.loc 1 1077 0
	mul	w5, w18, w6
	add	x3, x3, x5
	b	.L55
	.cfi_endproc
.LFE2825:
	.size	get_auto_image, .-get_auto_image
	.align	2
	.p2align 3,,7
	.type	waveform_open, %function
waveform_open:
.LFB2853:
	.loc 1 3196 0
	.cfi_startproc
.LVL72:
	.loc 1 3200 0
	mov	w0, 0
.LVL73:
	.loc 1 3197 0
	str	xzr, [x1, 104]
	.loc 1 3200 0
	ret
	.cfi_endproc
.LFE2853:
	.size	waveform_open, .-waveform_open
	.section	.exit.text,"ax",@progbits
	.align	2
	.type	ebc_exit, %function
ebc_exit:
.LFB2875:
	.loc 1 3827 0
	.cfi_startproc
	stp	x29, x30, [sp, -16]!
	.cfi_def_cfa_offset 16
	.cfi_offset 29, -16
	.cfi_offset 30, -8
	.loc 1 3828 0
	adrp	x0, .LANCHOR1
	add	x0, x0, :lo12:.LANCHOR1
	.loc 1 3827 0
	add	x29, sp, 0
	.cfi_def_cfa_register 29
	.loc 1 3828 0
	bl	platform_driver_unregister
.LVL74:
	.loc 1 3829 0
	ldp	x29, x30, [sp], 16
	.cfi_restore 30
	.cfi_restore 29
	.cfi_def_cfa 31, 0
	ret
	.cfi_endproc
.LFE2875:
	.size	ebc_exit, .-ebc_exit
	.text
	.align	2
	.p2align 3,,7
	.type	ebc_resume, %function
ebc_resume:
.LFB2873:
	.loc 1 3789 0
	.cfi_startproc
.LVL75:
	stp	x29, x30, [sp, -32]!
	.cfi_def_cfa_offset 32
	.cfi_offset 29, -32
	.cfi_offset 30, -24
	add	x29, sp, 0
	.cfi_def_cfa_register 29
	str	x19, [sp, 16]
	.cfi_offset 19, -16
.LBB1128:
.LBB1129:
	.file 2 "./include/linux/device.h"
	.loc 2 1181 0
	ldr	x19, [x0, 184]
.LBE1129:
.LBE1128:
	.loc 1 3793 0
	ldr	x1, [x19, 16]
.LBB1130:
.LBB1131:
	.file 3 "drivers/gpu/drm/rockchip/ebc-dev/pmic/ebc_pmic.h"
	.loc 3 45 0
	mov	x0, x1
.LVL76:
	ldr	x1, [x1, 48]
	blr	x1
.LVL77:
.LBE1131:
.LBE1130:
	.loc 1 3794 0
	str	wzr, [x19, 780]
	.loc 1 3795 0
	ldr	x0, [x19, 296]
	adrp	x1, .LC0
	add	x1, x1, :lo12:.LC0
	bl	_dev_info
.LVL78:
	.loc 1 3798 0
	ldr	x19, [sp, 16]
	mov	w0, 0
	ldp	x29, x30, [sp], 32
	.cfi_restore 30
	.cfi_restore 29
	.cfi_restore 19
	.cfi_def_cfa 31, 0
	ret
	.cfi_endproc
.LFE2873:
	.size	ebc_resume, .-ebc_resume
	.align	2
	.p2align 3,,7
	.type	ebc_frame_control_timeout, %function
ebc_frame_control_timeout:
.LFB2846:
	.loc 1 2858 0
	.cfi_startproc
.LVL79:
	stp	x29, x30, [sp, -16]!
	.cfi_def_cfa_offset 16
	.cfi_offset 29, -16
	.cfi_offset 30, -8
	.loc 1 2859 0
	adrp	x0, .LANCHOR0
.LVL80:
	.loc 1 2861 0
	mov	w3, 1
	.loc 1 2862 0
	adrp	x1, .LC1
	.loc 1 2858 0
	add	x29, sp, 0
	.cfi_def_cfa_register 29
	.loc 1 2859 0
	ldr	x2, [x0, #:lo12:.LANCHOR0]
	.loc 1 2862 0
	add	x1, x1, :lo12:.LC1
	ldr	x0, [x2, 296]
	.loc 1 2861 0
	str	w3, [x2, 792]
	.loc 1 2862 0
	bl	_dev_info
.LVL81:
	.loc 1 2865 0
	ldp	x29, x30, [sp], 16
	.cfi_restore 30
	.cfi_restore 29
	.cfi_def_cfa 31, 0
	ret
	.cfi_endproc
.LFE2846:
	.size	ebc_frame_control_timeout, .-ebc_frame_control_timeout
	.align	2
	.p2align 3,,7
	.type	ebc_remove, %function
ebc_remove:
.LFB2871:
	.loc 1 3765 0
	.cfi_startproc
.LVL82:
	stp	x29, x30, [sp, -16]!
	.cfi_def_cfa_offset 16
	.cfi_offset 29, -16
	.cfi_offset 30, -8
	.loc 1 3766 0
	adrp	x0, .LANCHOR1
.LVL83:
	add	x0, x0, :lo12:.LANCHOR1
	.loc 1 3765 0
	add	x29, sp, 0
	.cfi_def_cfa_register 29
	.loc 1 3766 0
	add	x0, x0, 224
	.loc 1 3765 0
	.loc 1 3766 0
	bl	misc_deregister
.LVL84:
	.loc 1 3769 0
	mov	w0, 0
	ldp	x29, x30, [sp], 16
	.cfi_restore 30
	.cfi_restore 29
	.cfi_def_cfa 31, 0
	ret
	.cfi_endproc
.LFE2871:
	.size	ebc_remove, .-ebc_remove
	.align	2
	.p2align 3,,7
	.type	ebc_mmap, %function
ebc_mmap:
.LFB2850:
	.loc 1 3142 0
	.cfi_startproc
.LVL85:
	stp	x29, x30, [sp, -32]!
	.cfi_def_cfa_offset 32
	.cfi_offset 29, -32
	.cfi_offset 30, -24
	add	x29, sp, 0
	.cfi_def_cfa_register 29
	str	x19, [sp, 16]
	.cfi_offset 19, -16
	.loc 1 3142 0
	mov	x19, x1
	.loc 1 3145 0
	bl	ebc_phy_buf_base_get
.LVL86:
	.loc 1 3148 0
	lsr	x2, x0, 12
	.loc 1 3146 0
	mov	x6, 16384
	.loc 1 3148 0
	mov	x0, x19
	.loc 1 3146 0
	ldp	x4, x5, [x19, 72]
	movk	x6, 0x404, lsl 16
	.loc 1 3148 0
	ldp	x1, x3, [x19]
	.loc 1 3146 0
	orr	x5, x5, x6
	str	x5, [x19, 80]
	.loc 1 3148 0
	sub	x3, x3, x1
	bl	remap_pfn_range
.LVL87:
	.loc 1 3151 0
	cmp	w0, 0
	mov	w1, -11
	.loc 1 3154 0
	ldr	x19, [sp, 16]
.LVL88:
	csel	w0, w0, w1, eq
	ldp	x29, x30, [sp], 32
	.cfi_restore 30
	.cfi_restore 29
	.cfi_restore 19
	.cfi_def_cfa 31, 0
	ret
	.cfi_endproc
.LFE2850:
	.size	ebc_mmap, .-ebc_mmap
	.align	2
	.p2align 3,,7
	.type	waveform_mmap, %function
waveform_mmap:
.LFB2852:
	.loc 1 3180 0
	.cfi_startproc
.LVL89:
	stp	x29, x30, [sp, -16]!
	.cfi_def_cfa_offset 16
	.cfi_offset 29, -16
	.cfi_offset 30, -8
	.loc 1 3181 0
	adrp	x2, .LANCHOR0
	.loc 1 3185 0
	mov	x7, 16384
	.loc 1 3187 0
	mov	x0, x1
.LVL90:
	.loc 1 3180 0
	add	x29, sp, 0
	.cfi_def_cfa_register 29
	.loc 1 3184 0
	ldr	x2, [x2, #:lo12:.LANCHOR0]
	.loc 1 3185 0
	movk	x7, 0x404, lsl 16
	ldp	x4, x5, [x1, 72]
	.loc 1 3187 0
	ldp	x6, x3, [x1]
	.loc 1 3185 0
	orr	x5, x5, x7
	.loc 1 3184 0
	ldr	x2, [x2, 232]
	.loc 1 3185 0
	str	x5, [x1, 80]
	.loc 1 3187 0
	sub	x3, x3, x6
	mov	x1, x6
.LVL91:
	lsr	x2, x2, 12
	bl	remap_pfn_range
.LVL92:
	.loc 1 3190 0
	cmp	w0, 0
	mov	w1, -11
	.loc 1 3193 0
	ldp	x29, x30, [sp], 16
	.cfi_restore 30
	.cfi_restore 29
	.cfi_def_cfa 31, 0
	csel	w0, w0, w1, eq
	ret
	.cfi_endproc
.LFE2852:
	.size	waveform_mmap, .-waveform_mmap
	.align	2
	.p2align 3,,7
	.type	ebc_io_ctl, %function
ebc_io_ctl:
.LFB2849:
	.loc 1 2947 0
	.cfi_startproc
.LVL93:
	stp	x29, x30, [sp, -160]!
	.cfi_def_cfa_offset 160
	.cfi_offset 29, -160
	.cfi_offset 30, -152
	add	x29, sp, 0
	.cfi_def_cfa_register 29
	stp	x19, x20, [sp, 16]
	.cfi_offset 19, -144
	.cfi_offset 20, -136
	adrp	x19, __stack_chk_guard
	stp	x21, x22, [sp, 32]
	add	x0, x19, :lo12:__stack_chk_guard
.LVL94:
	stp	x23, x24, [sp, 48]
	.cfi_offset 21, -128
	.cfi_offset 22, -120
	.cfi_offset 23, -112
	.cfi_offset 24, -104
	mov	x21, x2
	str	x25, [sp, 64]
	.cfi_offset 25, -96
	.loc 1 2947 0
	ldr	x3, [x0]
	str	x3, [x29, 152]
	mov	x3,0
	.loc 1 2957 0
	mov	w0, 28679
	.loc 1 2949 0
	adrp	x3, .LANCHOR0
	.loc 1 2957 0
	cmp	w1, w0
	.loc 1 2949 0
	ldr	x20, [x3, #:lo12:.LANCHOR0]
	.loc 1 2957 0
	bhi	.L136
	mov	w0, 28678
	cmp	w1, w0
	bcs	.L137
	sub	w0, w1, #28672
	cmp	w0, 3
	bhi	.L135
.L137:
	.loc 1 2968 0
	cbz	x21, .L253
.L258:
	sub	w0, w1, #28672
.L135:
	.loc 1 2977 0
	cmp	w0, 17
	bls	.L261
	.loc 1 3134 0
	ldr	x0, [x20, 296]
	adrp	x2, .LANCHOR2
	adrp	x1, .LC13
.LVL95:
	add	x2, x2, :lo12:.LANCHOR2
	add	x1, x1, :lo12:.LC13
	bl	_dev_err
.LVL96:
	.loc 1 3135 0
	mov	x0, 0
	b	.L134
.LVL97:
	.p2align 3
.L136:
	.loc 1 2957 0
	mov	w0, 28681
	cmp	w1, w0
	bcc	.L258
	mov	w0, 28683
	cmp	w1, w0
	bls	.L137
	mov	w0, 28688
	cmp	w1, w0
	bne	.L258
	.loc 1 2968 0
	cbnz	x21, .L258
	b	.L253
	.p2align 3
.L261:
	.loc 1 2977 0
	adrp	x1, .L141
.LVL98:
	add	x1, x1, :lo12:.L141
	ldrh	w0, [x1,w0,uxtw #1]
	adr	x1, .Lrtx141
	add	x0, x1, w0, sxth #2
	br	x0
.Lrtx141:
	.section	.rodata
	.align	0
	.align	2
.L141:
	.2byte	(.L140 - .Lrtx141) / 4
	.2byte	(.L142 - .Lrtx141) / 4
	.2byte	(.L143 - .Lrtx141) / 4
	.2byte	(.L144 - .Lrtx141) / 4
	.2byte	(.L145 - .Lrtx141) / 4
	.2byte	(.L146 - .Lrtx141) / 4
	.2byte	(.L147 - .Lrtx141) / 4
	.2byte	(.L148 - .Lrtx141) / 4
	.2byte	(.L259 - .Lrtx141) / 4
	.2byte	(.L150 - .Lrtx141) / 4
	.2byte	(.L151 - .Lrtx141) / 4
	.2byte	(.L152 - .Lrtx141) / 4
	.2byte	(.L153 - .Lrtx141) / 4
	.2byte	(.L154 - .Lrtx141) / 4
	.2byte	(.L155 - .Lrtx141) / 4
	.2byte	(.L156 - .Lrtx141) / 4
	.2byte	(.L157 - .Lrtx141) / 4
	.2byte	(.L158 - .Lrtx141) / 4
	.text
	.p2align 3
.L151:
.LBB1132:
.LBB1133:
.LBB1134:
.LBB1135:
.LBB1136:
.LBB1137:
.LBB1138:
	.file 4 "./arch/arm64/include/asm/current.h"
	.loc 4 19 0
#APP
// 19 "./arch/arm64/include/asm/current.h" 1
	mrs x0, sp_el0
// 0 "" 2
.LVL99:
#NO_APP
.LBE1138:
.LBE1137:
	.file 5 "./arch/arm64/include/asm/uaccess.h"
	.loc 5 85 0
	ldr	w2, [x0, 52]
.LBE1136:
.LBE1135:
.LBE1134:
.LBE1133:
.LBE1132:
	.loc 1 3127 0
	add	x22, x20, 440
.LBB1163:
.LBB1160:
.LBB1157:
.LBB1147:
.LBB1145:
	.loc 5 77 0
	ldr	x1, [x0, 8]
.LVL100:
	.loc 5 84 0
	tbnz	x2, 21, .L202
.LBB1139:
.LBB1140:
.LBB1141:
	.file 6 "./include/asm-generic/bitops/non-atomic.h"
	.loc 6 106 0
	ldr	x2, [x0]
.LBE1141:
.LBE1140:
.LBE1139:
.LBE1145:
.LBE1147:
.LBE1157:
.LBE1160:
.LBE1163:
	.loc 1 2948 0
	mov	x0, x21
.LVL101:
.LBB1164:
.LBB1161:
.LBB1158:
.LBB1148:
.LBB1146:
	.loc 5 84 0
	tbz	x2, 26, .L203
.LVL102:
.L202:
.LBB1142:
.LBB1143:
.LBB1144:
	.file 7 "./include/linux/bitops.h"
	.loc 7 157 0
	sbfx	x0, x21, 0, 56
.LVL103:
.LBE1144:
.LBE1143:
	.loc 5 86 0
	and	x0, x0, x21
.LVL104:
.L203:
.LBE1142:
	.loc 5 89 0
#APP
// 89 "./arch/arm64/include/asm/uaccess.h" 1
		adds	x0, x0, 4
	csel	x1, xzr, x1, hi
	csinv	x0, x0, xzr, cc
	sbcs	xzr, x0, x1
	cset	x0, ls

// 0 "" 2
.LVL105:
#NO_APP
	mov	x3, x0
.LBE1146:
.LBE1148:
	.file 8 "./include/linux/uaccess.h"
	.loc 8 114 0
	cbz	x0, .L226
.LBB1149:
.LBB1150:
.LBB1151:
.LBB1152:
.LBB1153:
	.loc 7 157 0
	sbfx	x0, x21, 0, 56
.LBE1153:
.LBE1152:
.LBE1151:
.LBB1154:
.LBB1155:
	.loc 4 19 0
#APP
// 19 "./arch/arm64/include/asm/current.h" 1
	mrs x1, sp_el0
// 0 "" 2
.LVL106:
#NO_APP
.LBE1155:
.LBE1154:
.LBB1156:
	.loc 5 254 0
	and	x0, x0, x21
.LVL107:
.LBE1156:
	.loc 5 249 0
	ldr	x2, [x1, 8]
#APP
// 249 "./arch/arm64/include/asm/uaccess.h" 1
		bics	xzr, x0, x2
	csel	x1, x21, xzr, eq

// 0 "" 2
.LVL108:
	.loc 5 257 0
// 257 "./arch/arm64/include/asm/uaccess.h" 1
	hint #20
// 0 "" 2
#NO_APP
.LBE1150:
.LBE1149:
	.loc 8 116 0
	mov	x2, 4
	mov	x0, x22
.LVL109:
	bl	__arch_copy_from_user
.LVL110:
	.loc 8 118 0
	cbnz	x0, .L262
.LBE1158:
.LBE1161:
.LBE1164:
	.loc 1 3131 0
	add	x20, x20, 192
	ldr	w2, [x20, 248]
	ldr	x0, [x20, 104]
.LVL111:
	adrp	x1, .LC16
	add	x1, x1, :lo12:.LC16
	bl	_dev_info
.LVL112:
.L259:
	.loc 1 3132 0
	mov	x0, 0
.LVL113:
.L134:
	.loc 1 3139 0
	add	x19, x19, :lo12:__stack_chk_guard
	ldr	x2, [x29, 152]
	ldr	x1, [x19]
	eor	x1, x2, x1
.LVL114:
	cbnz	x1, .L263
	ldp	x19, x20, [sp, 16]
	ldp	x21, x22, [sp, 32]
.LVL115:
	ldp	x23, x24, [sp, 48]
.LVL116:
	ldr	x25, [sp, 64]
	ldp	x29, x30, [sp], 160
	.cfi_remember_state
	.cfi_restore 30
	.cfi_restore 29
	.cfi_restore 25
	.cfi_restore 23
	.cfi_restore 24
	.cfi_restore 21
	.cfi_restore 22
	.cfi_restore 19
	.cfi_restore 20
	.cfi_def_cfa 31, 0
	ret
.LVL117:
	.p2align 3
.L157:
	.cfi_restore_state
.LBB1165:
.LBB1166:
.LBB1167:
.LBB1168:
.LBB1169:
.LBB1170:
.LBB1171:
.LBB1172:
	.loc 4 19 0
#APP
// 19 "./arch/arm64/include/asm/current.h" 1
	mrs x1, sp_el0
// 0 "" 2
.LVL118:
#NO_APP
.LBE1172:
.LBE1171:
	.loc 5 85 0
	ldr	w2, [x1, 52]
.LBE1170:
.LBE1169:
.LBE1168:
.LBE1167:
.LBE1166:
	.loc 1 3093 0
	mov	w0, 1
	str	w0, [x29, 84]
.LVL119:
.LBB1199:
.LBB1196:
.LBB1193:
.LBB1182:
.LBB1179:
	.loc 5 77 0
	ldr	x0, [x1, 8]
.LVL120:
	.loc 5 84 0
	tbz	x2, 21, .L264
.LVL121:
.L187:
.LBB1173:
.LBB1174:
.LBB1175:
	.loc 7 157 0
	sbfx	x1, x21, 0, 56
.LVL122:
.LBE1175:
.LBE1174:
	.loc 5 86 0
	and	x1, x1, x21
.LVL123:
.L188:
.LBE1173:
	.loc 5 89 0
#APP
// 89 "./arch/arm64/include/asm/uaccess.h" 1
		adds	x1, x1, 4
	csel	x0, xzr, x0, hi
	csinv	x1, x1, xzr, cc
	sbcs	xzr, x1, x0
	cset	x1, ls

// 0 "" 2
.LVL124:
#NO_APP
.LBE1179:
.LBE1182:
	.loc 8 132 0
	mov	x0, 4
.LVL125:
	cbz	x1, .L134
.LBB1183:
.LBB1184:
.LBB1185:
.LBB1186:
.LBB1187:
	.loc 7 157 0
	sbfx	x1, x21, 0, 56
.LVL126:
.LBE1187:
.LBE1186:
.LBE1185:
.LBB1188:
.LBB1189:
	.loc 4 19 0
#APP
// 19 "./arch/arm64/include/asm/current.h" 1
	mrs x2, sp_el0
// 0 "" 2
.LVL127:
#NO_APP
.LBE1189:
.LBE1188:
.LBB1190:
	.loc 5 254 0
	and	x1, x1, x21
.LVL128:
.LBE1190:
	.loc 5 249 0
	ldr	x2, [x2, 8]
.LVL129:
#APP
// 249 "./arch/arm64/include/asm/uaccess.h" 1
		bics	xzr, x1, x2
	csel	x3, x21, xzr, eq

// 0 "" 2
.LVL130:
	.loc 5 257 0
// 257 "./arch/arm64/include/asm/uaccess.h" 1
	hint #20
// 0 "" 2
#NO_APP
.LBE1184:
.LBE1183:
	.loc 8 134 0
	mov	x2, x0
	add	x1, x29, 84
.LVL131:
	mov	x0, x3
	bl	__arch_copy_to_user
.LVL132:
	sxtw	x0, w0
	b	.L134
.LVL133:
	.p2align 3
.L156:
.LBE1193:
.LBE1196:
.LBE1199:
.LBE1165:
	.loc 1 3078 0
	ldr	x0, [x20, 296]
	adrp	x1, .LC6
	.loc 1 3077 0
	str	wzr, [x20, 800]
	.loc 1 3078 0
	add	x1, x1, :lo12:.LC6
	bl	_dev_info
.LVL134:
	.loc 1 3079 0
	mov	x0, 0
	b	.L134
	.p2align 3
.L155:
	.loc 1 3074 0
	ldr	x0, [x20, 296]
	.loc 1 3073 0
	mov	w2, 1
	str	w2, [x20, 800]
	.loc 1 3074 0
	adrp	x1, .LC5
	add	x1, x1, :lo12:.LC5
	bl	_dev_info
.LVL135:
	.loc 1 3075 0
	mov	x0, 0
	b	.L134
	.p2align 3
.L154:
	.loc 1 3070 0
	ldr	x0, [x20, 296]
	adrp	x1, .LC4
	.loc 1 3069 0
	str	wzr, [x20, 796]
	.loc 1 3070 0
	add	x1, x1, :lo12:.LC4
	bl	_dev_info
.LVL136:
	.loc 1 3071 0
	mov	x0, 0
	b	.L134
	.p2align 3
.L153:
	.loc 1 3066 0
	ldr	x0, [x20, 296]
	.loc 1 3065 0
	mov	w2, 1
	str	w2, [x20, 796]
	.loc 1 3066 0
	adrp	x1, .LC3
	add	x1, x1, :lo12:.LC3
	bl	_dev_info
.LVL137:
	.loc 1 3067 0
	mov	x0, 0
	b	.L134
	.p2align 3
.L152:
.LBB1202:
.LBB1203:
.LBB1204:
.LBB1205:
.LBB1206:
.LBB1207:
.LBB1208:
	.loc 4 19 0
#APP
// 19 "./arch/arm64/include/asm/current.h" 1
	mrs x1, sp_el0
// 0 "" 2
.LVL138:
#NO_APP
.LBE1208:
.LBE1207:
	.loc 5 85 0
	ldr	w2, [x1, 52]
	.loc 5 77 0
	ldr	x0, [x1, 8]
.LVL139:
	.loc 5 84 0
	tbz	x2, 21, .L265
.LVL140:
.L184:
.LBB1209:
.LBB1210:
.LBB1211:
	.loc 7 157 0
	sbfx	x1, x21, 0, 56
.LVL141:
.LBE1211:
.LBE1210:
	.loc 5 86 0
	and	x1, x1, x21
.LVL142:
.L185:
.LBE1209:
	.loc 5 89 0
#APP
// 89 "./arch/arm64/include/asm/uaccess.h" 1
		adds	x1, x1, 4
	csel	x0, xzr, x0, hi
	csinv	x1, x1, xzr, cc
	sbcs	xzr, x1, x0
	cset	x1, ls

// 0 "" 2
.LVL143:
#NO_APP
.LBE1206:
.LBE1205:
	.loc 8 132 0
	mov	x0, 4
.LVL144:
	cbz	x1, .L134
.LBB1217:
.LBB1218:
.LBB1219:
.LBB1220:
.LBB1221:
	.loc 7 157 0
	sbfx	x1, x21, 0, 56
.LVL145:
.LBE1221:
.LBE1220:
.LBE1219:
.LBB1222:
.LBB1223:
	.loc 4 19 0
#APP
// 19 "./arch/arm64/include/asm/current.h" 1
	mrs x2, sp_el0
// 0 "" 2
.LVL146:
#NO_APP
.LBE1223:
.LBE1222:
.LBB1224:
	.loc 5 254 0
	and	x1, x1, x21
.LVL147:
.LBE1224:
	.loc 5 249 0
	ldr	x2, [x2, 8]
.LVL148:
#APP
// 249 "./arch/arm64/include/asm/uaccess.h" 1
		bics	xzr, x1, x2
	csel	x3, x21, xzr, eq

// 0 "" 2
.LVL149:
	.loc 5 257 0
// 257 "./arch/arm64/include/asm/uaccess.h" 1
	hint #20
// 0 "" 2
#NO_APP
.LBE1218:
.LBE1217:
	.loc 8 134 0
	mov	x2, x0
	add	x1, x20, 788
.LVL150:
	mov	x0, x3
	bl	__arch_copy_to_user
.LVL151:
	sxtw	x0, w0
	b	.L134
	.p2align 3
.L150:
.LBE1204:
.LBE1203:
.LBE1202:
.LBB1231:
.LBB1232:
.LBB1233:
.LBB1234:
.LBB1235:
.LBB1236:
.LBB1237:
	.loc 4 19 0
#APP
// 19 "./arch/arm64/include/asm/current.h" 1
	mrs x0, sp_el0
// 0 "" 2
.LVL152:
#NO_APP
.LBE1237:
.LBE1236:
	.loc 5 85 0
	ldr	w2, [x0, 52]
.LBE1235:
.LBE1234:
.LBE1233:
.LBE1232:
.LBE1231:
	.loc 1 3118 0
	add	x22, x20, 280
.LBB1266:
.LBB1262:
.LBB1258:
.LBB1247:
.LBB1244:
	.loc 5 77 0
	ldr	x1, [x0, 8]
.LVL153:
	.loc 5 84 0
	tbz	x2, 21, .L266
.LVL154:
.L198:
.LBB1238:
.LBB1239:
.LBB1240:
	.loc 7 157 0
	sbfx	x0, x21, 0, 56
.LVL155:
.LBE1240:
.LBE1239:
	.loc 5 86 0
	and	x0, x0, x21
.LVL156:
.L199:
.LBE1238:
	.loc 5 89 0
#APP
// 89 "./arch/arm64/include/asm/uaccess.h" 1
		adds	x0, x0, 4
	csel	x1, xzr, x1, hi
	csinv	x0, x0, xzr, cc
	sbcs	xzr, x0, x1
	cset	x0, ls

// 0 "" 2
.LVL157:
#NO_APP
	mov	x3, x0
.LBE1244:
.LBE1247:
	.loc 8 114 0
	cbz	x0, .L224
.LBB1248:
.LBB1249:
.LBB1250:
.LBB1251:
.LBB1252:
	.loc 7 157 0
	sbfx	x0, x21, 0, 56
.LBE1252:
.LBE1251:
.LBE1250:
.LBB1253:
.LBB1254:
	.loc 4 19 0
#APP
// 19 "./arch/arm64/include/asm/current.h" 1
	mrs x1, sp_el0
// 0 "" 2
.LVL158:
#NO_APP
.LBE1254:
.LBE1253:
.LBB1255:
	.loc 5 254 0
	and	x0, x0, x21
.LVL159:
.LBE1255:
	.loc 5 249 0
	ldr	x2, [x1, 8]
#APP
// 249 "./arch/arm64/include/asm/uaccess.h" 1
		bics	xzr, x0, x2
	csel	x1, x21, xzr, eq

// 0 "" 2
.LVL160:
	.loc 5 257 0
// 257 "./arch/arm64/include/asm/uaccess.h" 1
	hint #20
// 0 "" 2
#NO_APP
.LBE1249:
.LBE1248:
	.loc 8 116 0
	mov	x2, 4
	mov	x0, x22
.LVL161:
	bl	__arch_copy_from_user
.LVL162:
	.loc 8 118 0
	cbnz	x0, .L267
.LBE1258:
.LBE1262:
.LBE1266:
	.loc 1 3122 0
	ldr	x0, [x20, 296]
.LVL163:
	adrp	x1, .LC15
	ldr	w2, [x20, 280]
	add	x1, x1, :lo12:.LC15
	bl	_dev_info
.LVL164:
	.loc 1 3123 0
	mov	x0, 0
	b	.L134
	.p2align 3
.L148:
.LBB1267:
.LBB1268:
.LBB1269:
.LBB1270:
.LBB1271:
.LBB1272:
.LBB1273:
	.loc 4 19 0
#APP
// 19 "./arch/arm64/include/asm/current.h" 1
	mrs x0, sp_el0
// 0 "" 2
.LVL165:
#NO_APP
.LBE1273:
.LBE1272:
	.loc 5 85 0
	ldr	w2, [x0, 52]
	.loc 5 77 0
	ldr	x1, [x0, 8]
.LVL166:
	.loc 5 84 0
	tbz	x2, 21, .L268
.LVL167:
.L181:
.LBB1274:
.LBB1275:
.LBB1276:
	.loc 7 157 0
	sbfx	x0, x21, 0, 56
.LVL168:
.LBE1276:
.LBE1275:
	.loc 5 86 0
	and	x0, x0, x21
.LVL169:
.L182:
.LBE1274:
	.loc 5 89 0
#APP
// 89 "./arch/arm64/include/asm/uaccess.h" 1
		adds	x0, x0, 64
	csel	x1, xzr, x1, hi
	csinv	x0, x0, xzr, cc
	sbcs	xzr, x0, x1
	cset	x0, ls

// 0 "" 2
.LVL170:
#NO_APP
.LBE1271:
.LBE1270:
	.loc 8 114 0
	cbz	x0, .L260
.LBB1282:
.LBB1283:
.LBB1284:
.LBB1285:
.LBB1286:
	.loc 7 157 0
	sbfx	x0, x21, 0, 56
.LVL171:
.LBE1286:
.LBE1285:
.LBE1284:
.LBB1287:
.LBB1288:
	.loc 4 19 0
#APP
// 19 "./arch/arm64/include/asm/current.h" 1
	mrs x1, sp_el0
// 0 "" 2
.LVL172:
#NO_APP
.LBE1288:
.LBE1287:
.LBB1289:
	.loc 5 254 0
	and	x0, x0, x21
.LVL173:
.LBE1289:
	.loc 5 249 0
	ldr	x2, [x1, 8]
#APP
// 249 "./arch/arm64/include/asm/uaccess.h" 1
		bics	xzr, x0, x2
	csel	x1, x21, xzr, eq

// 0 "" 2
.LVL174:
	.loc 5 257 0
// 257 "./arch/arm64/include/asm/uaccess.h" 1
	hint #20
// 0 "" 2
#NO_APP
.LBE1283:
.LBE1282:
	.loc 8 116 0
	mov	x2, 64
	add	x0, x29, 88
.LVL175:
	bl	__arch_copy_from_user
.LVL176:
	.loc 8 118 0
	cbnz	x0, .L260
.LBE1269:
.LBE1268:
.LBE1267:
	.loc 1 3044 0
	bl	ebc_osd_buf_clone
.LVL177:
	mov	x1, x0
	.loc 1 3045 0
	cbz	x0, .L259
	.loc 1 3046 0
	ldr	w6, [x29, 92]
	.loc 1 3054 0
	add	x20, x20, 192
	.loc 1 3050 0
	ldp	w5, w3, [x29, 108]
	.loc 1 3046 0
	str	w6, [x1, 40]
	.loc 1 3051 0
	ldp	w4, w2, [x29, 116]
	.loc 1 3050 0
	stp	w5, w3, [x1, 48]
	.loc 1 3051 0
	stp	w4, w2, [x1, 56]
	.loc 1 3053 0
	bl	ebc_add_to_osd_buf_list
.LVL178:
	.loc 1 3054 0
	ldr	w0, [x20, 100]
	cbnz	w0, .L259
	.loc 1 3055 0
	mov	w2, 1
	str	w2, [x20, 100]
	.loc 1 3056 0
	adrp	x0, .LANCHOR1
	add	x0, x0, :lo12:.LANCHOR1
	add	x0, x0, 304
	mov	w1, w2
	bl	__wake_up_sync
.LVL179:
	mov	x0, 0
	b	.L134
	.p2align 3
.L147:
	.loc 1 2979 0
	bl	ebc_empty_osd_buf_get
.LVL180:
	.loc 1 2980 0
	cbz	x0, .L167
	.loc 1 2983 0
	ldr	x22, [x0, 8]
	bl	ebc_phy_buf_base_get
.LVL181:
.LBB1296:
.LBB1297:
.LBB1298:
.LBB1299:
.LBB1300:
.LBB1301:
.LBB1302:
	.loc 4 19 0
#APP
// 19 "./arch/arm64/include/asm/current.h" 1
	mrs x1, sp_el0
// 0 "" 2
.LVL182:
#NO_APP
.LBE1302:
.LBE1301:
	.loc 5 85 0
	ldr	w2, [x1, 52]
.LBE1300:
.LBE1299:
.LBE1298:
.LBE1297:
.LBE1296:
	.loc 1 2983 0
	sub	w0, w22, w0
	.loc 1 2987 0
	ldp	w5, w4, [x20, 108]
	.loc 1 2985 0
	str	w0, [x29, 88]
	.loc 1 2988 0
	ldr	w3, [x20, 176]
	.loc 1 2986 0
	stp	w4, w5, [x29, 96]
	.loc 1 2988 0
	str	w3, [x29, 104]
	.loc 1 2989 0
	str	wzr, [x29, 132]
.LBB1329:
.LBB1326:
.LBB1323:
.LBB1312:
.LBB1309:
	.loc 5 77 0
	ldr	x0, [x1, 8]
.LVL183:
	.loc 5 84 0
	tbz	x2, 21, .L269
.LVL184:
.L160:
.LBB1303:
.LBB1304:
.LBB1305:
	.loc 7 157 0
	sbfx	x1, x21, 0, 56
.LVL185:
.LBE1305:
.LBE1304:
	.loc 5 86 0
	and	x1, x1, x21
.LVL186:
.L161:
.LBE1303:
	.loc 5 89 0
#APP
// 89 "./arch/arm64/include/asm/uaccess.h" 1
		adds	x1, x1, 64
	csel	x0, xzr, x0, hi
	csinv	x1, x1, xzr, cc
	sbcs	xzr, x1, x0
	cset	x1, ls

// 0 "" 2
.LVL187:
#NO_APP
.LBE1309:
.LBE1312:
	.loc 8 132 0
	mov	x0, 64
.LVL188:
	cbz	x1, .L134
.LBB1313:
.LBB1314:
.LBB1315:
.LBB1316:
.LBB1317:
	.loc 7 157 0
	sbfx	x1, x21, 0, 56
.LVL189:
.LBE1317:
.LBE1316:
.LBE1315:
.LBB1318:
.LBB1319:
	.loc 4 19 0
#APP
// 19 "./arch/arm64/include/asm/current.h" 1
	mrs x2, sp_el0
// 0 "" 2
.LVL190:
#NO_APP
.LBE1319:
.LBE1318:
.LBB1320:
	.loc 5 254 0
	and	x1, x1, x21
.LVL191:
.LBE1320:
	.loc 5 249 0
	ldr	x2, [x2, 8]
.LVL192:
#APP
// 249 "./arch/arm64/include/asm/uaccess.h" 1
		bics	xzr, x1, x2
	csel	x3, x21, xzr, eq

// 0 "" 2
.LVL193:
	.loc 5 257 0
// 257 "./arch/arm64/include/asm/uaccess.h" 1
	hint #20
// 0 "" 2
#NO_APP
.LBE1314:
.LBE1313:
	.loc 8 134 0
	mov	x2, x0
	add	x1, x29, 88
.LVL194:
	mov	x0, x3
	bl	__arch_copy_to_user
.LVL195:
	sxtw	x0, w0
	b	.L134
	.p2align 3
.L146:
.LBE1323:
.LBE1326:
.LBE1329:
	.loc 1 3086 0
	ldr	x0, [x20, 296]
	adrp	x1, .LC8
	.loc 1 3085 0
	str	wzr, [x20, 788]
	.loc 1 3086 0
	add	x1, x1, :lo12:.LC8
	bl	_dev_info
.LVL196:
	.loc 1 3087 0
	mov	x0, 0
	b	.L134
	.p2align 3
.L145:
	.loc 1 3082 0
	ldr	x0, [x20, 296]
	.loc 1 3081 0
	mov	w2, 1
	str	w2, [x20, 788]
	.loc 1 3082 0
	adrp	x1, .LC7
	add	x1, x1, :lo12:.LC7
	bl	_dev_info
.LVL197:
	.loc 1 3083 0
	mov	x0, 0
	b	.L134
	.p2align 3
.L144:
.LBB1330:
.LBB1331:
.LBB1332:
.LBB1333:
.LBB1334:
.LBB1335:
.LBB1336:
	.loc 4 19 0
#APP
// 19 "./arch/arm64/include/asm/current.h" 1
	mrs x0, sp_el0
// 0 "" 2
.LVL198:
#NO_APP
.LBE1336:
.LBE1335:
	.loc 5 85 0
	ldr	w2, [x0, 52]
.LBE1334:
.LBE1333:
.LBE1332:
.LBE1331:
.LBE1330:
	.loc 1 3098 0
	add	x22, x20, 276
.LBB1365:
.LBB1361:
.LBB1357:
.LBB1346:
.LBB1343:
	.loc 5 77 0
	ldr	x1, [x0, 8]
.LVL199:
	.loc 5 84 0
	tbz	x2, 21, .L270
.LVL200:
.L190:
.LBB1337:
.LBB1338:
.LBB1339:
	.loc 7 157 0
	sbfx	x0, x21, 0, 56
.LVL201:
.LBE1339:
.LBE1338:
	.loc 5 86 0
	and	x0, x0, x21
.LVL202:
.L191:
.LBE1337:
	.loc 5 89 0
#APP
// 89 "./arch/arm64/include/asm/uaccess.h" 1
		adds	x0, x0, 4
	csel	x1, xzr, x1, hi
	csinv	x0, x0, xzr, cc
	sbcs	xzr, x0, x1
	cset	x0, ls

// 0 "" 2
.LVL203:
#NO_APP
	mov	x3, x0
.LBE1343:
.LBE1346:
	.loc 8 114 0
	cbz	x0, .L221
.LBB1347:
.LBB1348:
.LBB1349:
.LBB1350:
.LBB1351:
	.loc 7 157 0
	sbfx	x0, x21, 0, 56
.LBE1351:
.LBE1350:
.LBE1349:
.LBB1352:
.LBB1353:
	.loc 4 19 0
#APP
// 19 "./arch/arm64/include/asm/current.h" 1
	mrs x1, sp_el0
// 0 "" 2
.LVL204:
#NO_APP
.LBE1353:
.LBE1352:
.LBB1354:
	.loc 5 254 0
	and	x0, x0, x21
.LVL205:
.LBE1354:
	.loc 5 249 0
	ldr	x2, [x1, 8]
#APP
// 249 "./arch/arm64/include/asm/uaccess.h" 1
		bics	xzr, x0, x2
	csel	x1, x21, xzr, eq

// 0 "" 2
.LVL206:
	.loc 5 257 0
// 257 "./arch/arm64/include/asm/uaccess.h" 1
	hint #20
// 0 "" 2
#NO_APP
.LBE1348:
.LBE1347:
	.loc 8 116 0
	mov	x2, 4
	mov	x0, x22
.LVL207:
	bl	__arch_copy_from_user
.LVL208:
	.loc 8 118 0
	cbnz	x0, .L271
.LBE1357:
.LBE1361:
.LBE1365:
	.loc 1 3102 0
	ldr	x0, [x20, 296]
.LVL209:
	adrp	x1, .LC14
	ldr	w2, [x20, 276]
	add	x1, x1, :lo12:.LC14
	bl	_dev_info
.LVL210:
	.loc 1 3103 0
	mov	x0, 0
	b	.L134
	.p2align 3
.L143:
.LBB1366:
.LBB1367:
.LBB1368:
.LBB1369:
.LBB1370:
.LBB1371:
.LBB1372:
	.loc 4 19 0
#APP
// 19 "./arch/arm64/include/asm/current.h" 1
	mrs x2, sp_el0
// 0 "" 2
.LVL211:
#NO_APP
.LBE1372:
.LBE1371:
	.loc 5 85 0
	ldr	w3, [x2, 52]
.LBE1370:
.LBE1369:
.LBE1368:
.LBE1367:
.LBE1366:
	.loc 1 3109 0
	ldp	w1, w0, [x20, 116]
	stp	w1, w0, [x29, 124]
	.loc 1 3106 0
	ldp	w6, w5, [x20, 108]
	.loc 1 3105 0
	stp	w5, w6, [x29, 96]
	.loc 1 3107 0
	ldr	w4, [x20, 176]
	str	w4, [x29, 104]
	.loc 1 3110 0
	str	wzr, [x29, 132]
.LBB1401:
.LBB1397:
.LBB1393:
.LBB1382:
.LBB1379:
	.loc 5 77 0
	ldr	x1, [x2, 8]
.LVL212:
	.loc 5 84 0
	tbz	x3, 21, .L272
.LVL213:
.L194:
.LBB1373:
.LBB1374:
.LBB1375:
	.loc 7 157 0
	sbfx	x0, x21, 0, 56
.LVL214:
.LBE1375:
.LBE1374:
	.loc 5 86 0
	and	x0, x0, x21
.LVL215:
.L195:
.LBE1373:
	.loc 5 89 0
#APP
// 89 "./arch/arm64/include/asm/uaccess.h" 1
		adds	x0, x0, 64
	csel	x1, xzr, x1, hi
	csinv	x0, x0, xzr, cc
	sbcs	xzr, x0, x1
	cset	x0, ls

// 0 "" 2
.LVL216:
#NO_APP
.LBE1379:
.LBE1382:
	.loc 8 132 0
	cbnz	x0, .L196
.L197:
.LBE1393:
.LBE1397:
.LBE1401:
	.loc 1 3113 0
	ldr	x0, [x20, 296]
.LVL217:
	adrp	x1, .LC10
.LVL218:
	add	x1, x1, :lo12:.LC10
	bl	_dev_err
.LVL219:
	.loc 1 3114 0
	mov	x0, -14
	b	.L134
	.p2align 3
.L142:
.LBB1402:
.LBB1403:
.LBB1404:
.LBB1405:
.LBB1406:
.LBB1407:
.LBB1408:
	.loc 4 19 0
#APP
// 19 "./arch/arm64/include/asm/current.h" 1
	mrs x0, sp_el0
// 0 "" 2
.LVL220:
#NO_APP
.LBE1408:
.LBE1407:
	.loc 5 85 0
	ldr	w2, [x0, 52]
	.loc 5 77 0
	ldr	x1, [x0, 8]
.LVL221:
	.loc 5 84 0
	tbz	x2, 21, .L273
.LVL222:
.L174:
.LBB1409:
.LBB1410:
.LBB1411:
	.loc 7 157 0
	sbfx	x0, x21, 0, 56
.LVL223:
.LBE1411:
.LBE1410:
	.loc 5 86 0
	and	x0, x0, x21
.LVL224:
.L175:
.LBE1409:
	.loc 5 89 0
#APP
// 89 "./arch/arm64/include/asm/uaccess.h" 1
		adds	x0, x0, 64
	csel	x1, xzr, x1, hi
	csinv	x0, x0, xzr, cc
	sbcs	xzr, x0, x1
	cset	x0, ls

// 0 "" 2
.LVL225:
#NO_APP
.LBE1406:
.LBE1405:
	.loc 8 114 0
	cbz	x0, .L260
.LBB1417:
.LBB1418:
.LBB1419:
.LBB1420:
.LBB1421:
	.loc 7 157 0
	sbfx	x0, x21, 0, 56
.LVL226:
.LBE1421:
.LBE1420:
.LBE1419:
.LBB1422:
.LBB1423:
	.loc 4 19 0
#APP
// 19 "./arch/arm64/include/asm/current.h" 1
	mrs x1, sp_el0
// 0 "" 2
.LVL227:
#NO_APP
.LBE1423:
.LBE1422:
.LBB1424:
	.loc 5 254 0
	and	x0, x0, x21
.LVL228:
.LBE1424:
	.loc 5 249 0
	ldr	x2, [x1, 8]
#APP
// 249 "./arch/arm64/include/asm/uaccess.h" 1
		bics	xzr, x0, x2
	csel	x1, x21, xzr, eq

// 0 "" 2
.LVL229:
	.loc 5 257 0
// 257 "./arch/arm64/include/asm/uaccess.h" 1
	hint #20
// 0 "" 2
#NO_APP
.LBE1418:
.LBE1417:
	.loc 8 116 0
	mov	x2, 64
	add	x0, x29, 88
.LVL230:
	bl	__arch_copy_from_user
.LVL231:
	.loc 8 118 0
	cbnz	x0, .L260
.LBE1404:
.LBE1403:
.LBE1402:
	.loc 1 3021 0
	bl	ebc_phy_buf_base_get
.LVL232:
	ldrsw	x1, [x29, 88]
	.loc 1 3022 0
	add	x0, x1, x0
	bl	ebc_find_buf_by_phy_addr
.LVL233:
	mov	x21, x0
.LVL234:
	.loc 1 3023 0
	cbz	x0, .L259
	.loc 1 3024 0
	ldr	w1, [x29, 92]
	.loc 1 3032 0
	add	x20, x20, 192
	.loc 1 3024 0
	str	w1, [x21, 40]
	.loc 1 3028 0
	ldp	w4, w2, [x29, 108]
	stp	w4, w2, [x21, 48]
	.loc 1 3027 0
	ldr	w3, [x29, 116]
	.loc 1 3029 0
	ldr	w1, [x29, 120]
	.loc 1 3025 0
	ldr	w5, [x29, 132]
	.loc 1 3027 0
	str	w3, [x21, 56]
	.loc 1 3025 0
	stp	w1, w5, [x21, 60]
	.loc 1 3031 0
	bl	ebc_add_to_dsp_buf_list
.LVL235:
	.loc 1 3032 0
	ldr	w0, [x20, 100]
	cbz	w0, .L274
.L179:
	.loc 1 3036 0
	ldr	w0, [x21, 40]
	sub	w0, w0, #18
	tst	w0, -3
	bne	.L259
	.loc 1 3037 0
	mov	w1, 1
	mov	x0, 0
	str	w1, [x20, 612]
	b	.L134
.LVL236:
	.p2align 3
.L140:
.LBB1431:
.LBB1432:
.LBB1433:
.LBB1434:
.LBB1435:
.LBB1436:
.LBB1437:
	.loc 4 19 0
#APP
// 19 "./arch/arm64/include/asm/current.h" 1
	mrs x0, sp_el0
// 0 "" 2
.LVL237:
#NO_APP
.LBE1437:
.LBE1436:
	.loc 5 85 0
	ldr	w2, [x0, 52]
	.loc 5 77 0
	ldr	x1, [x0, 8]
.LVL238:
	.loc 5 84 0
	tbz	x2, 21, .L275
.LVL239:
.L163:
.LBB1438:
.LBB1439:
.LBB1440:
	.loc 7 157 0
	sbfx	x0, x21, 0, 56
.LVL240:
.LBE1440:
.LBE1439:
	.loc 5 86 0
	and	x0, x0, x21
.LVL241:
.L164:
.LBE1438:
	.loc 5 89 0
#APP
// 89 "./arch/arm64/include/asm/uaccess.h" 1
		adds	x0, x0, 64
	csel	x1, xzr, x1, hi
	csinv	x0, x0, xzr, cc
	sbcs	xzr, x0, x1
	cset	x0, ls

// 0 "" 2
.LVL242:
#NO_APP
.LBE1435:
.LBE1434:
	.loc 8 114 0
	cbz	x0, .L260
.LBB1446:
.LBB1447:
.LBB1448:
.LBB1449:
.LBB1450:
	.loc 7 157 0
	lsl	x22, x21, 8
.LBE1450:
.LBE1449:
.LBE1448:
.LBB1451:
.LBB1452:
	.loc 4 19 0
#APP
// 19 "./arch/arm64/include/asm/current.h" 1
	mrs x0, sp_el0
// 0 "" 2
.LVL243:
#NO_APP
.LBE1452:
.LBE1451:
.LBB1453:
	.loc 5 254 0
	and	x2, x21, x22, asr 8
.LVL244:
.LBE1453:
	.loc 5 249 0
	ldr	x0, [x0, 8]
.LVL245:
#APP
// 249 "./arch/arm64/include/asm/uaccess.h" 1
		bics	xzr, x2, x0
	csel	x1, x21, xzr, eq

// 0 "" 2
.LVL246:
	.loc 5 257 0
// 257 "./arch/arm64/include/asm/uaccess.h" 1
	hint #20
// 0 "" 2
#NO_APP
.LBE1447:
.LBE1446:
	.loc 8 116 0
	add	x24, x29, 88
	mov	x2, 64
.LVL247:
	mov	x0, x24
	bl	__arch_copy_from_user
.LVL248:
	mov	x23, x0
.LVL249:
	.loc 8 118 0
	cbnz	x0, .L166
.L169:
.LBE1433:
.LBE1432:
.LBE1431:
	.loc 1 2998 0
	add	x0, x24, 48
	bl	ebc_empty_buf_get
.LVL250:
	mov	x25, x0
	.loc 1 2999 0
	cbz	x0, .L167
	.loc 1 3002 0
	ldr	x23, [x0, 8]
.LVL251:
	bl	ebc_phy_buf_base_get
.LVL252:
	.loc 1 3006 0
	ldp	w3, w1, [x20, 108]
	.loc 1 3005 0
	stp	w1, w3, [x29, 96]
.LBB1462:
.LBB1463:
.LBB1464:
.LBB1465:
.LBB1466:
.LBB1467:
.LBB1468:
	.loc 4 19 0
#APP
// 19 "./arch/arm64/include/asm/current.h" 1
	mrs x2, sp_el0
// 0 "" 2
.LVL253:
#NO_APP
.LBE1468:
.LBE1467:
	.loc 5 85 0
	ldr	w3, [x2, 52]
.LBE1466:
.LBE1465:
.LBE1464:
.LBE1463:
.LBE1462:
	.loc 1 3002 0
	sub	w0, w23, w0
	.loc 1 3007 0
	ldr	w1, [x20, 176]
	.loc 1 3008 0
	str	wzr, [x29, 132]
	.loc 1 3007 0
	str	w1, [x29, 104]
	.loc 1 3004 0
	str	w0, [x29, 88]
.LBB1492:
.LBB1488:
.LBB1484:
.LBB1476:
.LBB1473:
	.loc 5 77 0
	ldr	x1, [x2, 8]
.LVL254:
	.loc 5 84 0
	tbnz	x3, 21, .L170
.LBB1469:
.LBB1470:
.LBB1471:
	.loc 6 106 0
	ldr	x2, [x2]
.LVL255:
.LBE1471:
.LBE1470:
.LBE1469:
.LBE1473:
.LBE1476:
.LBE1484:
.LBE1488:
.LBE1492:
	.loc 1 2948 0
	mov	x0, x21
.LVL256:
.LBB1493:
.LBB1489:
.LBB1485:
.LBB1477:
.LBB1474:
	.loc 5 84 0
	tbnz	x2, 26, .L170
.LVL257:
.L171:
	.loc 5 89 0
#APP
// 89 "./arch/arm64/include/asm/uaccess.h" 1
		adds	x0, x0, 64
	csel	x1, xzr, x1, hi
	csinv	x0, x0, xzr, cc
	sbcs	xzr, x0, x1
	cset	x0, ls

// 0 "" 2
.LVL258:
#NO_APP
.LBE1474:
.LBE1477:
	.loc 8 132 0
	cbnz	x0, .L172
.LVL259:
.L173:
.LBE1485:
.LBE1489:
.LBE1493:
	.loc 1 3012 0
	mov	x0, x25
.LVL260:
	bl	ebc_buf_release
.LVL261:
	.loc 1 3013 0
	mov	x0, -14
	b	.L134
.LVL262:
	.p2align 3
.L158:
	.loc 1 3061 0
	bl	ebc_drop_one_dsp_buf
.LVL263:
	cbz	w0, .L259
.LVL264:
	.p2align 2
.L260:
	.loc 1 3100 0
	mov	x0, -14
.LVL265:
	b	.L134
.LVL266:
	.p2align 3
.L268:
.LBB1494:
.LBB1294:
.LBB1292:
.LBB1290:
.LBB1280:
.LBB1277:
.LBB1278:
.LBB1279:
	.loc 6 106 0
	ldr	x2, [x0]
.LBE1279:
.LBE1278:
.LBE1277:
.LBE1280:
.LBE1290:
.LBE1292:
.LBE1294:
.LBE1494:
	.loc 1 2948 0
	mov	x0, x21
.LVL267:
.LBB1495:
.LBB1295:
.LBB1293:
.LBB1291:
.LBB1281:
	.loc 5 84 0
	tbz	x2, 26, .L182
	b	.L181
.LVL268:
	.p2align 3
.L272:
.LBE1281:
.LBE1291:
.LBE1293:
.LBE1295:
.LBE1495:
.LBB1496:
.LBB1398:
.LBB1394:
.LBB1383:
.LBB1380:
.LBB1376:
.LBB1377:
.LBB1378:
	.loc 6 106 0
	ldr	x2, [x2]
.LVL269:
.LBE1378:
.LBE1377:
.LBE1376:
.LBE1380:
.LBE1383:
.LBE1394:
.LBE1398:
.LBE1496:
	.loc 1 2948 0
	mov	x0, x21
.LVL270:
.LBB1497:
.LBB1399:
.LBB1395:
.LBB1384:
.LBB1381:
	.loc 5 84 0
	tbz	x2, 26, .L195
	b	.L194
.LVL271:
	.p2align 3
.L275:
.LBE1381:
.LBE1384:
.LBE1395:
.LBE1399:
.LBE1497:
.LBB1498:
.LBB1459:
.LBB1456:
.LBB1454:
.LBB1444:
.LBB1441:
.LBB1442:
.LBB1443:
	.loc 6 106 0
	ldr	x2, [x0]
.LBE1443:
.LBE1442:
.LBE1441:
.LBE1444:
.LBE1454:
.LBE1456:
.LBE1459:
.LBE1498:
	.loc 1 2948 0
	mov	x0, x21
.LVL272:
.LBB1499:
.LBB1460:
.LBB1457:
.LBB1455:
.LBB1445:
	.loc 5 84 0
	tbz	x2, 26, .L164
	b	.L163
.LVL273:
	.p2align 3
.L273:
.LBE1445:
.LBE1455:
.LBE1457:
.LBE1460:
.LBE1499:
.LBB1500:
.LBB1429:
.LBB1427:
.LBB1425:
.LBB1415:
.LBB1412:
.LBB1413:
.LBB1414:
	.loc 6 106 0
	ldr	x2, [x0]
.LBE1414:
.LBE1413:
.LBE1412:
.LBE1415:
.LBE1425:
.LBE1427:
.LBE1429:
.LBE1500:
	.loc 1 2948 0
	mov	x0, x21
.LVL274:
.LBB1501:
.LBB1430:
.LBB1428:
.LBB1426:
.LBB1416:
	.loc 5 84 0
	tbz	x2, 26, .L175
	b	.L174
.LVL275:
	.p2align 3
.L264:
.LBE1416:
.LBE1426:
.LBE1428:
.LBE1430:
.LBE1501:
.LBB1502:
.LBB1200:
.LBB1197:
.LBB1194:
.LBB1191:
.LBB1180:
.LBB1176:
.LBB1177:
.LBB1178:
	.loc 6 106 0
	ldr	x2, [x1]
.LBE1178:
.LBE1177:
.LBE1176:
.LBE1180:
.LBE1191:
.LBE1194:
.LBE1197:
.LBE1200:
.LBE1502:
	.loc 1 2948 0
	mov	x1, x21
.LVL276:
.LBB1503:
.LBB1201:
.LBB1198:
.LBB1195:
.LBB1192:
.LBB1181:
	.loc 5 84 0
	tbz	x2, 26, .L188
	b	.L187
.LVL277:
	.p2align 3
.L266:
.LBE1181:
.LBE1192:
.LBE1195:
.LBE1198:
.LBE1201:
.LBE1503:
.LBB1504:
.LBB1263:
.LBB1259:
.LBB1256:
.LBB1245:
.LBB1241:
.LBB1242:
.LBB1243:
	.loc 6 106 0
	ldr	x2, [x0]
.LBE1243:
.LBE1242:
.LBE1241:
.LBE1245:
.LBE1256:
.LBE1259:
.LBE1263:
.LBE1504:
	.loc 1 2948 0
	mov	x0, x21
.LVL278:
.LBB1505:
.LBB1264:
.LBB1260:
.LBB1257:
.LBB1246:
	.loc 5 84 0
	tbz	x2, 26, .L199
	b	.L198
.LVL279:
	.p2align 3
.L270:
.LBE1246:
.LBE1257:
.LBE1260:
.LBE1264:
.LBE1505:
.LBB1506:
.LBB1362:
.LBB1358:
.LBB1355:
.LBB1344:
.LBB1340:
.LBB1341:
.LBB1342:
	.loc 6 106 0
	ldr	x2, [x0]
.LBE1342:
.LBE1341:
.LBE1340:
.LBE1344:
.LBE1355:
.LBE1358:
.LBE1362:
.LBE1506:
	.loc 1 2948 0
	mov	x0, x21
.LVL280:
.LBB1507:
.LBB1363:
.LBB1359:
.LBB1356:
.LBB1345:
	.loc 5 84 0
	tbz	x2, 26, .L191
	b	.L190
.LVL281:
	.p2align 3
.L265:
.LBE1345:
.LBE1356:
.LBE1359:
.LBE1363:
.LBE1507:
.LBB1508:
.LBB1229:
.LBB1227:
.LBB1225:
.LBB1215:
.LBB1212:
.LBB1213:
.LBB1214:
	.loc 6 106 0
	ldr	x2, [x1]
.LBE1214:
.LBE1213:
.LBE1212:
.LBE1215:
.LBE1225:
.LBE1227:
.LBE1229:
.LBE1508:
	.loc 1 2948 0
	mov	x1, x21
.LVL282:
.LBB1509:
.LBB1230:
.LBB1228:
.LBB1226:
.LBB1216:
	.loc 5 84 0
	tbz	x2, 26, .L185
	b	.L184
.LVL283:
	.p2align 3
.L269:
.LBE1216:
.LBE1226:
.LBE1228:
.LBE1230:
.LBE1509:
.LBB1510:
.LBB1327:
.LBB1324:
.LBB1321:
.LBB1310:
.LBB1306:
.LBB1307:
.LBB1308:
	.loc 6 106 0
	ldr	x2, [x1]
.LBE1308:
.LBE1307:
.LBE1306:
.LBE1310:
.LBE1321:
.LBE1324:
.LBE1327:
.LBE1510:
	.loc 1 2948 0
	mov	x1, x21
.LVL284:
.LBB1511:
.LBB1328:
.LBB1325:
.LBB1322:
.LBB1311:
	.loc 5 84 0
	tbz	x2, 26, .L161
	b	.L160
.LVL285:
	.p2align 3
.L170:
.LBE1311:
.LBE1322:
.LBE1325:
.LBE1328:
.LBE1511:
.LBB1512:
.LBB1490:
.LBB1486:
.LBB1478:
.LBB1475:
.LBB1472:
	.loc 5 86 0
	and	x0, x21, x22, asr 8
	b	.L171
.LVL286:
.L253:
.LBE1472:
.LBE1475:
.LBE1478:
.LBE1486:
.LBE1490:
.LBE1512:
	.loc 1 2969 0
	ldr	x0, [x20, 296]
	adrp	x2, .LANCHOR2
	adrp	x1, .LC2
.LVL287:
	add	x2, x2, :lo12:.LANCHOR2
	add	x1, x1, :lo12:.LC2
	bl	_dev_err
.LVL288:
	.loc 1 2970 0
	mov	x0, -14
	b	.L134
.LVL289:
	.p2align 3
.L196:
.LBB1513:
.LBB1400:
.LBB1396:
.LBB1385:
.LBB1386:
.LBB1387:
.LBB1388:
.LBB1389:
	.loc 7 157 0
	sbfx	x1, x21, 0, 56
.LVL290:
.LBE1389:
.LBE1388:
.LBE1387:
.LBB1390:
.LBB1391:
	.loc 4 19 0
#APP
// 19 "./arch/arm64/include/asm/current.h" 1
	mrs x0, sp_el0
// 0 "" 2
.LVL291:
#NO_APP
.LBE1391:
.LBE1390:
.LBB1392:
	.loc 5 254 0
	and	x1, x1, x21
.LVL292:
.LBE1392:
	.loc 5 249 0
	ldr	x2, [x0, 8]
.LVL293:
#APP
// 249 "./arch/arm64/include/asm/uaccess.h" 1
		bics	xzr, x1, x2
	csel	x0, x21, xzr, eq

// 0 "" 2
.LVL294:
	.loc 5 257 0
// 257 "./arch/arm64/include/asm/uaccess.h" 1
	hint #20
// 0 "" 2
#NO_APP
.LBE1386:
.LBE1385:
	.loc 8 134 0
	mov	x2, 64
	add	x1, x29, 88
.LVL295:
	bl	__arch_copy_to_user
.LVL296:
.LBE1396:
.LBE1400:
.LBE1513:
	.loc 1 3112 0
	cbz	x0, .L259
	b	.L197
.LVL297:
	.p2align 3
.L172:
.LBB1514:
.LBB1491:
.LBB1487:
.LBB1479:
.LBB1480:
.LBB1481:
.LBB1482:
	.loc 4 19 0
#APP
// 19 "./arch/arm64/include/asm/current.h" 1
	mrs x0, sp_el0
// 0 "" 2
.LVL298:
#NO_APP
.LBE1482:
.LBE1481:
.LBB1483:
	.loc 5 254 0
	and	x22, x21, x22, asr 8
.LVL299:
.LBE1483:
	.loc 5 249 0
	ldr	x1, [x0, 8]
.LVL300:
#APP
// 249 "./arch/arm64/include/asm/uaccess.h" 1
		bics	xzr, x22, x1
	csel	x0, x21, xzr, eq

// 0 "" 2
.LVL301:
	.loc 5 257 0
// 257 "./arch/arm64/include/asm/uaccess.h" 1
	hint #20
// 0 "" 2
#NO_APP
.LBE1480:
.LBE1479:
	.loc 8 134 0
	mov	x2, 64
.LVL302:
	mov	x1, x24
	bl	__arch_copy_to_user
.LVL303:
.LBE1487:
.LBE1491:
.LBE1514:
	.loc 1 3011 0
	cbz	w0, .L259
	b	.L173
.LVL304:
	.p2align 3
.L274:
	.loc 1 3033 0
	mov	w2, 1
	str	w2, [x20, 100]
	.loc 1 3034 0
	adrp	x0, .LANCHOR1
	add	x0, x0, :lo12:.LANCHOR1
	mov	w1, w2
	add	x0, x0, 304
	bl	__wake_up_sync
.LVL305:
	b	.L179
.LVL306:
.L221:
.LBB1515:
.LBB1364:
.LBB1360:
	.loc 8 112 0
	mov	x0, 4
.LVL307:
.L192:
	.loc 8 119 0
	mov	x2, x0
	mov	w1, 0
.LVL308:
	add	x0, x22, x3
.LVL309:
	bl	memset
.LVL310:
.LBE1360:
.LBE1364:
.LBE1515:
	.loc 1 3099 0
	ldr	x0, [x20, 296]
	adrp	x1, .LC9
	add	x1, x1, :lo12:.LC9
	bl	_dev_err
.LVL311:
	.loc 1 3100 0
	mov	x0, -14
	b	.L134
.LVL312:
.L226:
.LBB1516:
.LBB1162:
.LBB1159:
	.loc 8 112 0
	mov	x0, 4
.LVL313:
.L204:
	.loc 8 119 0
	mov	x2, x0
	mov	w1, 0
.LVL314:
	add	x0, x22, x3
.LVL315:
	bl	memset
.LVL316:
.LBE1159:
.LBE1162:
.LBE1516:
	.loc 1 3128 0
	ldr	x0, [x20, 296]
	adrp	x1, .LC12
	add	x1, x1, :lo12:.LC12
	bl	_dev_err
.LVL317:
	.loc 1 3129 0
	mov	x0, -14
	b	.L134
.LVL318:
.L224:
.LBB1517:
.LBB1265:
.LBB1261:
	.loc 8 112 0
	mov	x0, 4
.LVL319:
.L200:
	.loc 8 119 0
	mov	x2, x0
	mov	w1, 0
.LVL320:
	add	x0, x22, x3
.LVL321:
	bl	memset
.LVL322:
.LBE1261:
.LBE1265:
.LBE1517:
	.loc 1 3119 0
	ldr	x0, [x20, 296]
	adrp	x1, .LC11
	add	x1, x1, :lo12:.LC11
	bl	_dev_err
.LVL323:
	.loc 1 3120 0
	mov	x0, -14
	b	.L134
.LVL324:
.L167:
	.loc 1 2981 0
	mov	x0, -1
	b	.L134
.LVL325:
.L263:
	.loc 1 3139 0
	bl	__stack_chk_fail
.LVL326:
.L166:
.LBB1518:
.LBB1461:
.LBB1458:
	.loc 8 119 0
	sub	x0, x24, x0
.LVL327:
	mov	x2, x23
	mov	w1, 0
	add	x0, x0, 64
	bl	memset
.LVL328:
.LBE1458:
.LBE1461:
.LBE1518:
	.loc 1 2995 0
	cbz	w23, .L169
	.loc 1 3100 0
	mov	x0, -14
	b	.L134
.LVL329:
.L271:
	mov	x3, 4
	sub	x3, x3, x0
.LVL330:
	b	.L192
.LVL331:
.L262:
	mov	x3, 4
	sub	x3, x3, x0
.LVL332:
	b	.L204
.LVL333:
.L267:
	mov	x3, 4
	sub	x3, x3, x0
.LVL334:
	b	.L200
	.cfi_endproc
.LFE2849:
	.size	ebc_io_ctl, .-ebc_io_ctl
	.align	2
	.p2align 3,,7
	.type	get_overlay_image2, %function
get_overlay_image2:
.LFB2821:
	.loc 1 667 0
	.cfi_startproc
.LVL335:
	stp	x29, x30, [sp, -112]!
	.cfi_def_cfa_offset 112
	.cfi_offset 29, -112
	.cfi_offset 30, -104
	.loc 1 668 0
	adrp	x7, .LANCHOR0
	.loc 1 677 0
	cmp	w6, 2
	.loc 1 667 0
	add	x29, sp, 0
	.cfi_def_cfa_register 29
	stp	x23, x24, [sp, 48]
	.cfi_offset 23, -64
	.cfi_offset 24, -56
	mov	x23, x0
	.loc 1 668 0
	ldr	x0, [x7, #:lo12:.LANCHOR0]
.LVL336:
	.loc 1 667 0
	stp	x19, x20, [sp, 16]
	.cfi_offset 19, -96
	.cfi_offset 20, -88
	mov	x19, x5
	stp	x25, x26, [sp, 64]
	.cfi_offset 25, -48
	.cfi_offset 26, -40
	mov	x26, x1
	stp	x27, x28, [sp, 80]
	mov	x20, x2
	stp	x21, x22, [sp, 32]
	.cfi_offset 27, -32
	.cfi_offset 28, -24
	.cfi_offset 21, -80
	.cfi_offset 22, -72
	.loc 1 667 0
	mov	x27, x3
	mov	x28, x4
	.loc 1 671 0
	add	x25, x5, 60
.LVL337:
	.loc 1 675 0
	ldp	w1, w22, [x0, 108]
.LVL338:
	.loc 1 674 0
	lsr	w24, w1, 3
	.loc 1 677 0
	beq	.L431
	.loc 1 680 0
	cmp	w6, 3
	beq	.L279
	lsr	w13, w1, 2
	mov	x0, 0
	.loc 1 688 0
	mov	w21, 0
.LVL339:
.L278:
	.loc 1 692 0
	sub	w2, w22, w21
	add	x0, x23, x0
	mov	w1, 0
	str	w13, [x29, 108]
	mul	w2, w2, w13
	sxtw	x2, w2
	bl	memset
.LVL340:
	.loc 1 694 0
	cmp	w21, w22
	bge	.L339
	ldr	w13, [x29, 108]
	sub	w11, w24, #1
	add	x11, x11, 1
	mov	w3, 0
.LVL341:
	lsl	x11, x11, 3
	mul	w12, w21, w13
	lsl	w13, w13, 1
.LVL342:
	.p2align 2
.L338:
.LBB1519:
	.loc 1 695 0
	add	x9, x23, x12, sxtw
	.loc 1 696 0
	cbz	w24, .L281
	add	x1, x27, 8
	add	x8, x28, 8
	mov	x4, x9
.LVL343:
	mov	x7, 0
.LVL344:
	.p2align 2
.L309:
.LBB1520:
	.loc 1 697 0
	ldr	x2, [x26, x7]
	.loc 1 698 0
	ldr	x0, [x20, x7]
.LVL345:
	.loc 1 700 0
	cmp	x2, x0
	beq	.L282
.LBB1521:
	.loc 1 703 0
	eor	x5, x2, x0
.LVL346:
	.loc 1 706 0
	and	x3, x5, 255
.LVL347:
	cbz	x3, .L340
.LBB1522:
	.loc 1 706 0 is_stmt 0 discriminator 1
	ldrb	w10, [x8, -8]
.LVL348:
	lsr	x6, x0, 3
.LVL349:
	ldrb	w3, [x1, -8]
	ubfx	x16, x2, 3, 5
	ubfiz	x6, x6, 5, 5
	ldrb	w15, [x19, 56]
.LVL350:
	add	x14, x19, x10, sxtw 3
.LVL351:
	orr	x6, x6, x16
	ldrb	w17, [x19, 57]
	lsl	w16, w3, 10
	cmp	w10, 0
	add	w3, w3, 1
	ldr	x14, [x14, 128]
	and	w3, w3, 255
	csel	w15, w15, w17, eq
.LBE1522:
	.loc 1 701 0 is_stmt 1 discriminator 1
	mov	w10, 0
.LVL352:
.LBB1523:
	.loc 1 706 0 discriminator 1
	add	x6, x14, x6
	cmp	w15, w3
	ldrb	w6, [x6, w16, sxtw]
.LVL353:
	beq	.L432
.L285:
	.loc 1 706 0 is_stmt 0 discriminator 9
	strb	w3, [x1, -8]
.LVL354:
.L283:
.LBE1523:
	.loc 1 707 0 is_stmt 1 discriminator 10
	tst	x5, 65280
	beq	.L286
.LBB1524:
	.loc 1 707 0 is_stmt 0 discriminator 1
	ldrb	w16, [x8, -7]
.LVL355:
	lsr	x17, x0, 11
	ldrb	w3, [x1, -7]
	ubfx	x18, x2, 11, 5
.LVL356:
	cmp	w16, 0
	ubfiz	x17, x17, 5, 5
	add	x30, x19, x16, sxtw 3
	orr	x14, x17, x18
.LVL357:
	lsl	w17, w3, 10
	ldrb	w15, [x19, 56]
.LVL358:
	ldrb	w18, [x19, 57]
	add	w3, w3, 1
	ldr	x16, [x30, 128]
.LVL359:
	and	w3, w3, 255
	csel	w15, w15, w18, eq
	add	x14, x16, x14
	cmp	w15, w3
	ldrb	w14, [x14, w17, sxtw]
.LVL360:
	orr	w6, w6, w14, lsl 4
	beq	.L433
.L288:
	.loc 1 707 0 discriminator 9
	strb	w3, [x1, -7]
.LVL361:
.L286:
.LBE1524:
	.loc 1 708 0 is_stmt 1 discriminator 10
	tst	x5, 16711680
	beq	.L289
.LBB1525:
	.loc 1 708 0 is_stmt 0 discriminator 1
	ldrb	w16, [x8, -6]
.LVL362:
	lsr	x17, x0, 19
	ldrb	w3, [x1, -6]
	ubfx	x18, x2, 19, 5
.LVL363:
	cmp	w16, 0
	ubfiz	x17, x17, 5, 5
	add	x30, x19, x16, sxtw 3
	orr	x14, x17, x18
.LVL364:
	lsl	w17, w3, 10
	ldrb	w15, [x19, 56]
.LVL365:
	ldrb	w18, [x19, 57]
	add	w3, w3, 1
	ldr	x16, [x30, 128]
.LVL366:
	and	w3, w3, 255
	csel	w15, w15, w18, eq
	add	x14, x16, x14
	cmp	w15, w3
	ldrb	w14, [x14, w17, sxtw]
.LVL367:
	orr	w6, w6, w14, lsl 8
	beq	.L434
.L291:
	.loc 1 708 0 discriminator 9
	strb	w3, [x1, -6]
.LVL368:
.L289:
.LBE1525:
	.loc 1 709 0 is_stmt 1 discriminator 10
	tst	x5, 4278190080
	beq	.L292
.LBB1526:
	.loc 1 709 0 is_stmt 0 discriminator 1
	ldrb	w16, [x8, -5]
.LVL369:
	lsr	x17, x0, 27
	ldrb	w3, [x1, -5]
	lsr	w18, w2, 27
.LVL370:
	cmp	w16, 0
	ubfiz	x17, x17, 5, 5
	add	x30, x19, x16, sxtw 3
	orr	x14, x17, x18
.LVL371:
	lsl	w17, w3, 10
	ldrb	w15, [x19, 56]
.LVL372:
	ldrb	w18, [x19, 57]
	add	w3, w3, 1
	ldr	x16, [x30, 128]
.LVL373:
	and	w3, w3, 255
	csel	w15, w15, w18, eq
	add	x14, x16, x14
	cmp	w15, w3
	ldrb	w14, [x14, w17, sxtw]
.LVL374:
	orr	w6, w6, w14, lsl 12
	beq	.L435
.L294:
	.loc 1 709 0 discriminator 9
	strb	w3, [x1, -5]
.LVL375:
.L292:
.LBE1526:
	.loc 1 710 0 is_stmt 1 discriminator 10
	tst	x5, 1095216660480
	beq	.L295
.LBB1527:
	.loc 1 710 0 is_stmt 0 discriminator 1
	ldrb	w16, [x8, -4]
.LVL376:
	lsr	x17, x0, 35
	ldrb	w3, [x1, -4]
	ubfx	x18, x2, 35, 5
.LVL377:
	cmp	w16, 0
	ubfiz	x17, x17, 5, 5
	add	x30, x19, x16, sxtw 3
	orr	x14, x17, x18
.LVL378:
	lsl	w17, w3, 10
	ldrb	w15, [x19, 56]
.LVL379:
	ldrb	w18, [x19, 57]
	add	w3, w3, 1
	ldr	x16, [x30, 128]
.LVL380:
	and	w3, w3, 255
	csel	w15, w15, w18, eq
	add	x14, x16, x14
	cmp	w15, w3
	ldrb	w14, [x14, w17, sxtw]
.LVL381:
	orr	w6, w6, w14, lsl 16
	beq	.L436
.L297:
	.loc 1 710 0 discriminator 9
	strb	w3, [x1, -4]
.LVL382:
.L295:
.LBE1527:
	.loc 1 711 0 is_stmt 1 discriminator 10
	tst	x5, 280375465082880
	beq	.L298
.LBB1528:
	.loc 1 711 0 is_stmt 0 discriminator 1
	ldrb	w16, [x8, -3]
.LVL383:
	lsr	x17, x0, 43
	ldrb	w3, [x1, -3]
	ubfx	x18, x2, 43, 5
.LVL384:
	cmp	w16, 0
	ubfiz	x17, x17, 5, 5
	add	x30, x19, x16, sxtw 3
	orr	x14, x17, x18
.LVL385:
	lsl	w17, w3, 10
	ldrb	w15, [x19, 56]
.LVL386:
	ldrb	w18, [x19, 57]
	add	w3, w3, 1
	ldr	x16, [x30, 128]
.LVL387:
	and	w3, w3, 255
	csel	w15, w15, w18, eq
	add	x14, x16, x14
	cmp	w15, w3
	ldrb	w14, [x14, w17, sxtw]
.LVL388:
	orr	w6, w6, w14, lsl 20
	beq	.L437
.L300:
	.loc 1 711 0 discriminator 9
	strb	w3, [x1, -3]
.LVL389:
.L298:
.LBE1528:
	.loc 1 712 0 is_stmt 1 discriminator 10
	tst	x5, 71776119061217280
	beq	.L301
.LBB1529:
	.loc 1 712 0 is_stmt 0 discriminator 1
	ldrb	w16, [x8, -2]
.LVL390:
	lsr	x17, x0, 51
	ldrb	w3, [x1, -2]
	ubfx	x18, x2, 51, 5
.LVL391:
	cmp	w16, 0
	ubfiz	x17, x17, 5, 5
	add	x30, x19, x16, sxtw 3
	orr	x14, x17, x18
.LVL392:
	lsl	w17, w3, 10
	ldrb	w15, [x19, 56]
.LVL393:
	ldrb	w18, [x19, 57]
	add	w3, w3, 1
	ldr	x16, [x30, 128]
.LVL394:
	and	w3, w3, 255
	csel	w15, w15, w18, eq
	add	x14, x16, x14
	cmp	w15, w3
	ldrb	w14, [x14, w17, sxtw]
.LVL395:
	orr	w6, w6, w14, lsl 24
	beq	.L438
.L303:
	.loc 1 712 0 discriminator 9
	strb	w3, [x1, -2]
.LVL396:
.L301:
.LBE1529:
	.loc 1 713 0 is_stmt 1 discriminator 10
	tst	x5, -72057594037927936
	beq	.L304
.LBB1530:
	.loc 1 713 0 is_stmt 0 discriminator 1
	ldrb	w18, [x8, -1]
.LVL397:
	lsr	x14, x0, 59
.LVL398:
	ldrb	w5, [x1, -1]
.LVL399:
	lsl	x14, x14, 5
	ldrb	w15, [x19, 56]
.LVL400:
	cmp	w18, 0
	add	x3, x19, x18, sxtw 3
	ldrb	w17, [x19, 57]
	ubfiz	x16, x5, 10, 8
	add	w5, w5, 1
	and	w5, w5, 255
	csel	w15, w15, w17, eq
	ldr	x3, [x3, 128]
	cmp	w15, w5
	add	x3, x3, x16
	add	x3, x3, x2, lsr 59
	ldrb	w3, [x3, x14]
.LVL401:
	orr	w6, w6, w3, lsl 28
	beq	.L439
	.loc 1 713 0 discriminator 9
	strb	w5, [x1, -1]
.LVL402:
.L304:
.LBE1530:
	.loc 1 714 0 is_stmt 1 discriminator 10
	cbnz	w10, .L307
.L308:
	.loc 1 705 0
	mov	w3, 1
.LVL403:
	.loc 1 716 0
	str	w6, [x4]
.LVL404:
.L282:
	add	x7, x7, 8
	add	x1, x1, 8
	add	x8, x8, 8
	add	x4, x4, 4
.LBE1521:
.LBE1520:
	.loc 1 696 0 discriminator 2
	cmp	x11, x7
	bne	.L309
	add	x27, x27, x11
.LVL405:
	add	x28, x28, x11
.LVL406:
	add	x20, x20, x11
.LVL407:
	add	x26, x26, x11
	add	x1, x27, 8
	add	x8, x28, 8
	.loc 1 696 0 is_stmt 0
	mov	x7, 0
.LVL408:
	.p2align 2
.L337:
.LBB1541:
	.loc 1 727 0 is_stmt 1
	ldr	x5, [x26, x7]
.LVL409:
	.loc 1 728 0
	ldr	x0, [x20, x7]
.LVL410:
	.loc 1 730 0
	cmp	x5, x0
	beq	.L310
.LBB1542:
	.loc 1 733 0
	eor	x6, x5, x0
.LVL411:
	.loc 1 736 0
	and	x2, x6, 255
.LVL412:
	cbz	x2, .L342
.LBB1543:
	.loc 1 736 0 is_stmt 0 discriminator 1
	ldrb	w10, [x8, -8]
.LVL413:
	lsr	x2, x0, 3
	ldrb	w3, [x1, -8]
.LVL414:
	ubfx	x4, x5, 3, 5
.LVL415:
	cmp	w10, 0
	ubfiz	x2, x2, 5, 5
	add	x16, x19, x10, sxtw 3
	orr	x2, x2, x4
	lsl	w15, w3, 10
.LVL416:
	ldrb	w4, [x19, 57]
	ldrb	w14, [x19, 56]
.LVL417:
	add	w3, w3, 1
	ldr	x10, [x16, 128]
.LVL418:
	and	w3, w3, 255
	csel	w14, w14, w4, eq
.LBE1543:
	.loc 1 731 0 is_stmt 1 discriminator 1
	mov	w4, 0
.LVL419:
.LBB1544:
	.loc 1 736 0 discriminator 1
	add	x2, x10, x2
	cmp	w14, w3
	ldrb	w2, [x2, w15, sxtw]
.LVL420:
	lsl	w2, w2, 2
.LVL421:
	beq	.L440
.L313:
	.loc 1 736 0 is_stmt 0 discriminator 9
	strb	w3, [x1, -8]
.LVL422:
.L311:
.LBE1544:
	.loc 1 737 0 is_stmt 1 discriminator 10
	tst	x6, 65280
	beq	.L314
.LBB1545:
	.loc 1 737 0 is_stmt 0 discriminator 1
	ldrb	w18, [x8, -7]
.LVL423:
	lsr	x14, x0, 11
.LVL424:
	ldrb	w3, [x1, -7]
.LVL425:
	ubfiz	x14, x14, 5, 5
	ubfx	x10, x5, 11, 5
.LVL426:
	ldrb	w15, [x19, 56]
.LVL427:
	add	x17, x19, x18, sxtw 3
	orr	x10, x14, x10
	lsl	w14, w3, 10
	ldrb	w16, [x19, 57]
	cmp	w18, 0
	add	w3, w3, 1
	ldr	x17, [x17, 128]
	and	w3, w3, 255
	csel	w15, w15, w16, eq
	add	x10, x17, x10
	cmp	w15, w3
	ldrb	w10, [x10, w14, sxtw]
.LVL428:
	orr	w2, w2, w10, lsl 6
	beq	.L441
.L316:
	.loc 1 737 0 discriminator 9
	strb	w3, [x1, -7]
.LVL429:
.L314:
.LBE1545:
	.loc 1 738 0 is_stmt 1 discriminator 10
	tst	x6, 16711680
	beq	.L317
.LBB1546:
	.loc 1 738 0 is_stmt 0 discriminator 1
	ldrb	w18, [x8, -6]
.LVL430:
	lsr	x14, x0, 19
.LVL431:
	ldrb	w3, [x1, -6]
.LVL432:
	ubfiz	x14, x14, 5, 5
	ubfx	x10, x5, 19, 5
.LVL433:
	ldrb	w15, [x19, 56]
.LVL434:
	add	x17, x19, x18, sxtw 3
	orr	x10, x14, x10
	lsl	w14, w3, 10
	ldrb	w16, [x19, 57]
	cmp	w18, 0
	add	w3, w3, 1
	ldr	x17, [x17, 128]
	and	w3, w3, 255
	csel	w15, w15, w16, eq
	add	x10, x17, x10
	cmp	w15, w3
	ldrb	w10, [x10, w14, sxtw]
.LVL435:
	orr	w2, w2, w10, lsl 10
	beq	.L442
.L319:
	.loc 1 738 0 discriminator 9
	strb	w3, [x1, -6]
.LVL436:
.L317:
.LBE1546:
	.loc 1 739 0 is_stmt 1 discriminator 10
	tst	x6, 4278190080
	beq	.L320
.LBB1547:
	.loc 1 739 0 is_stmt 0 discriminator 1
	ldrb	w18, [x8, -5]
.LVL437:
	lsr	x14, x0, 27
.LVL438:
	ldrb	w3, [x1, -5]
.LVL439:
	ubfiz	x14, x14, 5, 5
	lsr	w10, w5, 27
.LVL440:
	ldrb	w15, [x19, 56]
.LVL441:
	add	x17, x19, x18, sxtw 3
	orr	x10, x14, x10
	lsl	w14, w3, 10
	ldrb	w16, [x19, 57]
	cmp	w18, 0
	add	w3, w3, 1
	ldr	x17, [x17, 128]
	and	w3, w3, 255
	csel	w15, w15, w16, eq
	add	x10, x17, x10
	cmp	w15, w3
	ldrb	w10, [x10, w14, sxtw]
.LVL442:
	orr	w2, w2, w10, lsl 14
	beq	.L443
.L322:
	.loc 1 739 0 discriminator 9
	strb	w3, [x1, -5]
.LVL443:
.L320:
.LBE1547:
	.loc 1 740 0 is_stmt 1 discriminator 10
	tst	x6, 1095216660480
	beq	.L323
.LBB1548:
	.loc 1 740 0 is_stmt 0 discriminator 1
	ldrb	w18, [x8, -4]
.LVL444:
	lsr	x14, x0, 35
.LVL445:
	ldrb	w3, [x1, -4]
.LVL446:
	ubfiz	x14, x14, 5, 5
	ubfx	x10, x5, 35, 5
.LVL447:
	ldrb	w15, [x19, 56]
.LVL448:
	add	x17, x19, x18, sxtw 3
	orr	x10, x14, x10
	lsl	w14, w3, 10
	ldrb	w16, [x19, 57]
	cmp	w18, 0
	add	w3, w3, 1
	ldr	x17, [x17, 128]
	and	w3, w3, 255
	csel	w15, w15, w16, eq
	add	x10, x17, x10
	cmp	w15, w3
	ldrb	w10, [x10, w14, sxtw]
.LVL449:
	orr	w2, w2, w10, lsl 18
	beq	.L444
.L325:
	.loc 1 740 0 discriminator 9
	strb	w3, [x1, -4]
.LVL450:
.L323:
.LBE1548:
	.loc 1 741 0 is_stmt 1 discriminator 10
	tst	x6, 280375465082880
	beq	.L326
.LBB1549:
	.loc 1 741 0 is_stmt 0 discriminator 1
	ldrb	w18, [x8, -3]
.LVL451:
	lsr	x14, x0, 43
.LVL452:
	ldrb	w10, [x1, -3]
.LVL453:
	ubfiz	x14, x14, 5, 5
	ubfx	x3, x5, 43, 5
.LVL454:
	ldrb	w15, [x19, 56]
.LVL455:
	add	x17, x19, x18, sxtw 3
	orr	x3, x14, x3
	lsl	w14, w10, 10
	ldrb	w16, [x19, 57]
	cmp	w18, 0
	add	w10, w10, 1
	ldr	x17, [x17, 128]
	and	w10, w10, 255
	csel	w15, w15, w16, eq
	add	x3, x17, x3
	cmp	w15, w10
	ldrb	w3, [x3, w14, sxtw]
.LVL456:
	orr	w2, w2, w3, lsl 22
	beq	.L445
.L328:
	.loc 1 741 0 discriminator 9
	strb	w10, [x1, -3]
.LVL457:
.L326:
.LBE1549:
	.loc 1 742 0 is_stmt 1 discriminator 10
	tst	x6, 71776119061217280
	beq	.L329
.LBB1550:
	.loc 1 742 0 is_stmt 0 discriminator 1
	ldrb	w18, [x8, -2]
.LVL458:
	lsr	x14, x0, 51
.LVL459:
	ldrb	w10, [x1, -2]
.LVL460:
	ubfiz	x14, x14, 5, 5
	ubfx	x3, x5, 51, 5
.LVL461:
	ldrb	w15, [x19, 56]
.LVL462:
	add	x17, x19, x18, sxtw 3
	orr	x3, x14, x3
	lsl	w14, w10, 10
	ldrb	w16, [x19, 57]
	cmp	w18, 0
	add	w10, w10, 1
	ldr	x17, [x17, 128]
	and	w10, w10, 255
	csel	w15, w15, w16, eq
	add	x3, x17, x3
	cmp	w15, w10
	ldrb	w3, [x3, w14, sxtw]
.LVL463:
	orr	w2, w2, w3, lsl 26
	beq	.L446
.L331:
	.loc 1 742 0 discriminator 9
	strb	w10, [x1, -2]
.LVL464:
.L329:
.LBE1550:
	.loc 1 743 0 is_stmt 1 discriminator 10
	tst	x6, -72057594037927936
	beq	.L332
.LBB1551:
	.loc 1 743 0 is_stmt 0 discriminator 1
	ldrb	w15, [x8, -1]
	lsr	x10, x0, 59
.LVL465:
	ldrb	w6, [x1, -1]
.LVL466:
	lsl	x10, x10, 5
	ldrb	w14, [x19, 56]
.LVL467:
	cmp	w15, 0
	add	x3, x19, x15, sxtw 3
.LVL468:
	ldrb	w17, [x19, 57]
	ubfiz	x16, x6, 10, 8
	add	w6, w6, 1
	and	w6, w6, 255
	csel	w14, w14, w17, eq
	ldr	x3, [x3, 128]
	cmp	w14, w6
	add	x3, x3, x16
	add	x3, x3, x5, lsr 59
	ldrb	w3, [x3, x10]
.LVL469:
	orr	w2, w2, w3, lsl 30
	beq	.L447
	.loc 1 743 0 discriminator 9
	strb	w6, [x1, -1]
.LVL470:
.L332:
.LBE1551:
	.loc 1 744 0 is_stmt 1 discriminator 10
	cbnz	w4, .L335
.L336:
	.loc 1 746 0
	ldr	w0, [x9]
.LVL471:
	.loc 1 735 0
	mov	w3, 1
.LVL472:
	.loc 1 746 0
	orr	w2, w0, w2
.LVL473:
	str	w2, [x9]
.LVL474:
.L310:
	add	x7, x7, 8
	add	x1, x1, 8
	add	x8, x8, 8
	add	x9, x9, 4
.LBE1542:
.LBE1541:
	.loc 1 726 0 discriminator 2
	cmp	x11, x7
	bne	.L337
	add	x27, x27, x11
	add	x28, x28, x11
	add	x20, x20, x11
	add	x26, x26, x11
.LVL475:
.L281:
.LBE1519:
	.loc 1 694 0
	add	w21, w21, 2
	add	w12, w12, w13
	cmp	w22, w21
	bgt	.L338
	.loc 1 756 0
	str	w3, [x25]
	.loc 1 757 0
	ldp	x19, x20, [sp, 16]
.LVL476:
	ldp	x21, x22, [sp, 32]
.LVL477:
	ldp	x23, x24, [sp, 48]
.LVL478:
	ldp	x25, x26, [sp, 64]
.LVL479:
	ldp	x27, x28, [sp, 80]
.LVL480:
	ldp	x29, x30, [sp], 112
	.cfi_remember_state
	.cfi_restore 30
	.cfi_restore 29
	.cfi_restore 27
	.cfi_restore 28
	.cfi_restore 25
	.cfi_restore 26
	.cfi_restore 23
	.cfi_restore 24
	.cfi_restore 21
	.cfi_restore 22
	.cfi_restore 19
	.cfi_restore 20
	.cfi_def_cfa 31, 0
	ret
.LVL481:
	.p2align 3
.L439:
	.cfi_restore_state
.LBB1564:
.LBB1561:
.LBB1539:
.LBB1531:
	.loc 1 713 0 discriminator 7
	and	x0, x0, 72057594037927935
.LVL482:
	and	x2, x2, -72057594037927936
.LVL483:
	orr	x0, x2, x0
.LVL484:
	strb	wzr, [x1, -1]
.LVL485:
.L307:
.LBE1531:
	.loc 1 715 0
	str	x0, [x20, x7]
	b	.L308
.LVL486:
	.p2align 3
.L438:
.LBB1532:
	.loc 1 712 0 discriminator 7
	and	x3, x2, 71776119061217280
	and	x0, x0, -71776119061217281
.LVL487:
	orr	x0, x3, x0
.LVL488:
	mov	w10, 1
	mov	w3, 0
	b	.L303
.LVL489:
	.p2align 3
.L436:
.LBE1532:
.LBB1533:
	.loc 1 710 0 discriminator 7
	and	x3, x2, 1095216660480
	and	x0, x0, -1095216660481
.LVL490:
	orr	x0, x3, x0
.LVL491:
	mov	w10, 1
	mov	w3, 0
	b	.L297
.LVL492:
	.p2align 3
.L437:
.LBE1533:
.LBB1534:
	.loc 1 711 0 discriminator 7
	and	x3, x2, 280375465082880
	and	x0, x0, -280375465082881
.LVL493:
	orr	x0, x3, x0
.LVL494:
	mov	w10, 1
	mov	w3, 0
	b	.L300
.LVL495:
	.p2align 3
.L435:
.LBE1534:
.LBB1535:
	.loc 1 709 0 discriminator 7
	and	x3, x2, 4278190080
	and	x0, x0, -4278190081
.LVL496:
	orr	x0, x3, x0
.LVL497:
	mov	w10, 1
	mov	w3, 0
	b	.L294
.LVL498:
	.p2align 3
.L433:
.LBE1535:
.LBB1536:
	.loc 1 707 0 discriminator 7
	and	x3, x2, 65280
	and	x0, x0, -65281
.LVL499:
	orr	x0, x3, x0
.LVL500:
	mov	w10, 1
	mov	w3, 0
	b	.L288
.LVL501:
	.p2align 3
.L434:
.LBE1536:
.LBB1537:
	.loc 1 708 0 discriminator 7
	and	x3, x2, 16711680
	and	x0, x0, -16711681
.LVL502:
	orr	x0, x3, x0
.LVL503:
	mov	w10, 1
	mov	w3, 0
	b	.L291
.LVL504:
	.p2align 3
.L432:
.LBE1537:
.LBB1538:
	.loc 1 706 0 discriminator 7
	bfi	x0, x2, 0, 8
	mov	w3, 0
	mov	w10, 1
	b	.L285
.LVL505:
	.p2align 3
.L447:
.LBE1538:
.LBE1539:
.LBE1561:
.LBB1562:
.LBB1560:
.LBB1552:
	.loc 1 743 0 discriminator 7
	and	x0, x0, 72057594037927935
.LVL506:
	and	x5, x5, -72057594037927936
.LVL507:
	orr	x0, x5, x0
.LVL508:
	strb	wzr, [x1, -1]
.LVL509:
.L335:
.LBE1552:
	.loc 1 745 0
	str	x0, [x20, x7]
	b	.L336
.LVL510:
	.p2align 3
.L444:
.LBB1553:
	.loc 1 740 0 discriminator 7
	and	x3, x5, 1095216660480
	and	x0, x0, -1095216660481
.LVL511:
	orr	x0, x3, x0
.LVL512:
	mov	w4, 1
	mov	w3, 0
	b	.L325
.LVL513:
	.p2align 3
.L445:
.LBE1553:
.LBB1554:
	.loc 1 741 0 discriminator 7
	and	x0, x0, -280375465082881
.LVL514:
	and	x3, x5, 280375465082880
.LVL515:
	orr	x0, x3, x0
.LVL516:
	mov	w10, 0
	mov	w4, 1
	b	.L328
.LVL517:
	.p2align 3
.L446:
.LBE1554:
.LBB1555:
	.loc 1 742 0 discriminator 7
	and	x0, x0, -71776119061217281
.LVL518:
	and	x3, x5, 71776119061217280
.LVL519:
	orr	x0, x3, x0
.LVL520:
	mov	w10, 0
	mov	w4, 1
	b	.L331
.LVL521:
	.p2align 3
.L442:
.LBE1555:
.LBB1556:
	.loc 1 738 0 discriminator 7
	and	x3, x5, 16711680
	and	x0, x0, -16711681
.LVL522:
	orr	x0, x3, x0
.LVL523:
	mov	w4, 1
	mov	w3, 0
	b	.L319
.LVL524:
	.p2align 3
.L443:
.LBE1556:
.LBB1557:
	.loc 1 739 0 discriminator 7
	and	x3, x5, 4278190080
	and	x0, x0, -4278190081
.LVL525:
	orr	x0, x3, x0
.LVL526:
	mov	w4, 1
	mov	w3, 0
	b	.L322
.LVL527:
	.p2align 3
.L441:
.LBE1557:
.LBB1558:
	.loc 1 737 0 discriminator 7
	and	x3, x5, 65280
	and	x0, x0, -65281
.LVL528:
	orr	x0, x3, x0
.LVL529:
	mov	w4, 1
	mov	w3, 0
	b	.L316
.LVL530:
	.p2align 3
.L440:
.LBE1558:
.LBB1559:
	.loc 1 736 0 discriminator 7
	bfi	x0, x5, 0, 8
	mov	w3, 0
	mov	w4, 1
	b	.L313
.LVL531:
	.p2align 3
.L342:
.LBE1559:
	.loc 1 732 0
	mov	w2, 0
.LVL532:
	.loc 1 731 0
	mov	w4, 0
	b	.L311
.LVL533:
	.p2align 3
.L340:
.LBE1560:
.LBE1562:
.LBB1563:
.LBB1540:
	.loc 1 702 0
	mov	w6, 0
.LVL534:
	.loc 1 701 0
	mov	w10, 0
.LVL535:
	b	.L283
.LVL536:
.L431:
.LBE1540:
.LBE1563:
.LBE1564:
	.loc 1 679 0
	add	w22, w22, w22, lsr 31
.LVL537:
	lsr	w13, w1, 2
	asr	w22, w22, 1
.LVL538:
	mov	x0, 0
	.loc 1 678 0
	mov	w21, 0
.LVL539:
	b	.L278
.LVL540:
.L279:
	.loc 1 681 0
	add	w21, w22, w22, lsr 31
	lsr	w13, w1, 2
	asr	w21, w21, 1
.LVL541:
	.loc 1 686 0
	add	x25, x5, 64
	.loc 1 682 0
	mul	w0, w24, w21
	.loc 1 684 0
	mul	w1, w21, w1
	.loc 1 682 0
	sbfiz	x0, x0, 3, 32
	.loc 1 684 0
	add	x27, x3, x1
	.loc 1 682 0
	add	x26, x26, x0
	.loc 1 683 0
	add	x20, x2, x0
	mul	w0, w21, w13
	.loc 1 685 0
	add	x28, x4, x1
	sxtw	x0, w0
	b	.L278
.LVL542:
.L339:
	.loc 1 670 0
	mov	w3, 0
.LVL543:
	.loc 1 756 0
	str	w3, [x25]
	.loc 1 757 0
	ldp	x19, x20, [sp, 16]
.LVL544:
	ldp	x21, x22, [sp, 32]
.LVL545:
	ldp	x23, x24, [sp, 48]
.LVL546:
	ldp	x25, x26, [sp, 64]
.LVL547:
	ldp	x27, x28, [sp, 80]
.LVL548:
	ldp	x29, x30, [sp], 112
	.cfi_restore 20
	.cfi_restore 19
	.cfi_restore 22
	.cfi_restore 21
	.cfi_restore 24
	.cfi_restore 23
	.cfi_restore 26
	.cfi_restore 25
	.cfi_restore 28
	.cfi_restore 27
	.cfi_restore 29
	.cfi_restore 30
	.cfi_def_cfa 31, 0
	ret
	.cfi_endproc
.LFE2821:
	.size	get_overlay_image2, .-get_overlay_image2
	.align	2
	.p2align 3,,7
	.type	get_overlay_image, %function
get_overlay_image:
.LFB2820:
	.loc 1 595 0
	.cfi_startproc
.LVL549:
	stp	x29, x30, [sp, -112]!
	.cfi_def_cfa_offset 112
	.cfi_offset 29, -112
	.cfi_offset 30, -104
	.loc 1 596 0
	adrp	x7, .LANCHOR0
	.loc 1 605 0
	cmp	w6, 2
	.loc 1 595 0
	add	x29, sp, 0
	.cfi_def_cfa_register 29
	stp	x21, x22, [sp, 32]
	.cfi_offset 21, -80
	.cfi_offset 22, -72
	mov	x21, x1
	.loc 1 596 0
	ldr	x22, [x7, #:lo12:.LANCHOR0]
	.loc 1 595 0
	stp	x19, x20, [sp, 16]
	.cfi_offset 19, -96
	.cfi_offset 20, -88
	mov	x19, x5
	.loc 1 602 0
	add	x22, x22, 24
	.loc 1 595 0
	stp	x27, x28, [sp, 80]
	stp	x23, x24, [sp, 48]
	mov	x5, x0
.LVL550:
	stp	x25, x26, [sp, 64]
	.cfi_offset 27, -32
	.cfi_offset 28, -24
	.cfi_offset 23, -64
	.cfi_offset 24, -56
	.cfi_offset 25, -48
	.cfi_offset 26, -40
	.loc 1 595 0
	mov	x20, x2
	mov	x24, x3
	mov	x25, x4
	.loc 1 603 0
	ldp	w13, w0, [x22, 84]
.LVL551:
	.loc 1 599 0
	add	x28, x19, 60
.LVL552:
	.loc 1 602 0
	lsr	w27, w13, 3
	.loc 1 605 0
	beq	.L530
	mov	w26, w0
.LVL553:
	.loc 1 608 0
	cmp	w6, 3
	.loc 1 616 0
	mov	w23, 0
.LVL554:
	.loc 1 608 0
	beq	.L531
.L450:
	.loc 1 620 0
	ldr	w1, [x22, 156]
	.loc 1 619 0
	lsr	w13, w13, 2
.LVL555:
	.loc 1 620 0
	cbz	w1, .L451
	.loc 1 621 0
	sub	w2, w26, w23
	sub	w0, w0, w26
	str	x5, [x29, 96]
	mov	w1, 0
	str	w13, [x29, 108]
	mul	w2, w2, w13
	mul	w0, w0, w13
	sxtw	x2, w2
	add	x0, x5, x0
	bl	memset
.LVL556:
	.loc 1 622 0
	ldr	w0, [x22, 88]
	.loc 1 629 0
	cmp	w23, w26
	.loc 1 622 0
	ldr	w13, [x29, 108]
	sub	w0, w0, #1
	ldr	x5, [x29, 96]
.LVL557:
	sub	w0, w0, w23
.LVL558:
	mul	w0, w0, w13
	.loc 1 623 0
	neg	w13, w13
	.loc 1 622 0
	add	x22, x5, x0
.LVL559:
	.loc 1 629 0
	bge	.L486
.L540:
	sub	w12, w27, #1
	sxtw	x13, w13
.LVL560:
	add	x12, x12, 1
	lsl	w11, w27, 1
	lsl	x12, x12, 3
	mov	w3, 0
.LVL561:
	.p2align 2
.L453:
	.loc 1 630 0 discriminator 1
	cbz	w27, .L484
	add	x1, x24, 8
	add	x6, x25, 8
	.loc 1 630 0 is_stmt 0
	mov	w9, 0
	mov	x7, 0
	.p2align 2
.L482:
.LBB1565:
	.loc 1 631 0 is_stmt 1
	ldr	x2, [x21, x7]
	.loc 1 632 0
	ldr	x0, [x20, x7]
	.loc 1 634 0
	cmp	x2, x0
	beq	.L455
.LBB1566:
	.loc 1 638 0
	eor	x5, x2, x0
	.loc 1 636 0
	add	x4, x22, x9, sxtw
	.loc 1 641 0
	and	x3, x5, 255
.LVL562:
	cbz	x3, .L487
.LBB1567:
	.loc 1 641 0 is_stmt 0 discriminator 1
	ldrb	w14, [x6, -8]
.LVL563:
	lsr	x10, x0, 3
	ldrb	w3, [x1, -8]
	ubfiz	x10, x10, 5, 5
	ubfx	x8, x2, 3, 5
	ldrb	w15, [x19, 56]
	add	x18, x19, x14, sxtw 3
.LVL564:
	orr	x8, x10, x8
	lsl	w16, w3, 10
	ldrb	w17, [x19, 57]
	cmp	w14, 0
	add	w3, w3, 1
	ldr	x10, [x18, 128]
	and	w3, w3, 255
	csel	w15, w15, w17, eq
.LBE1567:
	.loc 1 635 0 is_stmt 1 discriminator 1
	mov	w14, 0
.LVL565:
.LBB1568:
	.loc 1 641 0 discriminator 1
	add	x8, x10, x8
	cmp	w15, w3
	ldrb	w8, [x8, w16, sxtw]
	beq	.L532
.L458:
	.loc 1 641 0 is_stmt 0 discriminator 9
	strb	w3, [x1, -8]
.LVL566:
.L456:
.LBE1568:
	.loc 1 642 0 is_stmt 1 discriminator 10
	tst	x5, 65280
	beq	.L459
.LBB1569:
	.loc 1 642 0 is_stmt 0 discriminator 1
	ldrb	w16, [x6, -7]
.LVL567:
	lsr	x17, x0, 11
	ldrb	w3, [x1, -7]
	ubfx	x18, x2, 11, 5
.LVL568:
	cmp	w16, 0
	ubfiz	x17, x17, 5, 5
	add	x30, x19, x16, sxtw 3
	orr	x10, x17, x18
	lsl	w17, w3, 10
	ldrb	w15, [x19, 56]
	ldrb	w18, [x19, 57]
	add	w3, w3, 1
	ldr	x16, [x30, 128]
.LVL569:
	and	w3, w3, 255
	csel	w15, w15, w18, eq
	add	x10, x16, x10
	cmp	w15, w3
	ldrb	w10, [x10, w17, sxtw]
	ubfiz	w10, w10, 2, 6
	orr	w8, w10, w8
	beq	.L533
.L461:
	.loc 1 642 0 discriminator 9
	strb	w3, [x1, -7]
.LVL570:
.L459:
.LBE1569:
	.loc 1 643 0 is_stmt 1 discriminator 10
	tst	x5, 16711680
	beq	.L462
.LBB1570:
	.loc 1 643 0 is_stmt 0 discriminator 1
	ldrb	w16, [x6, -6]
.LVL571:
	lsr	x17, x0, 19
	ldrb	w3, [x1, -6]
	ubfx	x18, x2, 19, 5
.LVL572:
	cmp	w16, 0
	ubfiz	x17, x17, 5, 5
	add	x30, x19, x16, sxtw 3
	orr	x10, x17, x18
	lsl	w17, w3, 10
	ldrb	w15, [x19, 56]
	ldrb	w18, [x19, 57]
	add	w3, w3, 1
	ldr	x16, [x30, 128]
.LVL573:
	and	w3, w3, 255
	csel	w15, w15, w18, eq
	add	x10, x16, x10
	cmp	w15, w3
	ldrb	w10, [x10, w17, sxtw]
	ubfiz	w10, w10, 4, 4
	orr	w8, w10, w8
	beq	.L534
.L464:
	.loc 1 643 0 discriminator 9
	strb	w3, [x1, -6]
.LVL574:
.L462:
.LBE1570:
	.loc 1 644 0 is_stmt 1 discriminator 10
	tst	x5, 4278190080
	beq	.L465
.LBB1571:
	.loc 1 644 0 is_stmt 0 discriminator 1
	ldrb	w16, [x6, -5]
.LVL575:
	lsr	x17, x0, 27
	ldrb	w3, [x1, -5]
	lsr	w18, w2, 27
.LVL576:
	cmp	w16, 0
	ubfiz	x17, x17, 5, 5
	add	x30, x19, x16, sxtw 3
	orr	x10, x17, x18
	lsl	w17, w3, 10
	ldrb	w15, [x19, 56]
	ldrb	w18, [x19, 57]
	add	w3, w3, 1
	ldr	x16, [x30, 128]
.LVL577:
	and	w3, w3, 255
	csel	w15, w15, w18, eq
	add	x10, x16, x10
	cmp	w15, w3
	ldrb	w10, [x10, w17, sxtw]
	ubfiz	w10, w10, 6, 2
	orr	w8, w10, w8
	beq	.L535
.L467:
	.loc 1 644 0 discriminator 9
	strb	w3, [x1, -5]
.LVL578:
.L465:
.LBE1571:
	.loc 1 645 0 is_stmt 1 discriminator 10
	strb	w8, [x4]
	.loc 1 647 0 discriminator 10
	tst	x5, 1095216660480
	.loc 1 646 0 discriminator 10
	mov	w8, 0
	.loc 1 647 0 discriminator 10
	beq	.L468
.LBB1572:
	.loc 1 647 0 is_stmt 0 discriminator 1
	ldrb	w18, [x6, -4]
.LVL579:
	lsr	x10, x0, 35
	ldrb	w3, [x1, -4]
	ubfiz	x10, x10, 5, 5
	ubfx	x8, x2, 35, 5
	ldrb	w15, [x19, 56]
	add	x17, x19, x18, sxtw 3
	orr	x8, x10, x8
	ldrb	w16, [x19, 57]
	lsl	w10, w3, 10
	cmp	w18, 0
	add	w3, w3, 1
	ldr	x17, [x17, 128]
	and	w3, w3, 255
	csel	w15, w15, w16, eq
	add	x8, x17, x8
	cmp	w15, w3
	ldrb	w8, [x8, w10, sxtw]
	beq	.L536
.L470:
	.loc 1 647 0 discriminator 9
	strb	w3, [x1, -4]
.LVL580:
.L468:
.LBE1572:
	.loc 1 648 0 is_stmt 1 discriminator 10
	tst	x5, 280375465082880
	beq	.L471
.LBB1573:
	.loc 1 648 0 is_stmt 0 discriminator 1
	ldrb	w16, [x6, -3]
.LVL581:
	lsr	x17, x0, 43
	ldrb	w10, [x1, -3]
	ubfx	x18, x2, 43, 5
.LVL582:
	cmp	w16, 0
	ubfiz	x17, x17, 5, 5
	add	x30, x19, x16, sxtw 3
	orr	x3, x17, x18
	lsl	w17, w10, 10
	ldrb	w15, [x19, 56]
	ldrb	w18, [x19, 57]
	add	w10, w10, 1
	ldr	x16, [x30, 128]
.LVL583:
	and	w10, w10, 255
	csel	w15, w15, w18, eq
	add	x3, x16, x3
	cmp	w15, w10
	ldrb	w3, [x3, w17, sxtw]
	ubfiz	w3, w3, 2, 6
	orr	w8, w3, w8
	beq	.L537
.L473:
	.loc 1 648 0 discriminator 9
	strb	w10, [x1, -3]
.LVL584:
.L471:
.LBE1573:
	.loc 1 649 0 is_stmt 1 discriminator 10
	tst	x5, 71776119061217280
	beq	.L474
.LBB1574:
	.loc 1 649 0 is_stmt 0 discriminator 1
	ldrb	w16, [x6, -2]
.LVL585:
	lsr	x17, x0, 51
	ldrb	w10, [x1, -2]
	ubfx	x18, x2, 51, 5
.LVL586:
	cmp	w16, 0
	ubfiz	x17, x17, 5, 5
	add	x30, x19, x16, sxtw 3
	orr	x3, x17, x18
	lsl	w17, w10, 10
	ldrb	w15, [x19, 56]
	ldrb	w18, [x19, 57]
	add	w10, w10, 1
	ldr	x16, [x30, 128]
.LVL587:
	and	w10, w10, 255
	csel	w15, w15, w18, eq
	add	x3, x16, x3
	cmp	w15, w10
	ldrb	w3, [x3, w17, sxtw]
	ubfiz	w3, w3, 4, 4
	orr	w8, w3, w8
	beq	.L538
.L476:
	.loc 1 649 0 discriminator 9
	strb	w10, [x1, -2]
.LVL588:
.L474:
.LBE1574:
	.loc 1 650 0 is_stmt 1 discriminator 10
	tst	x5, -72057594037927936
	beq	.L477
.LBB1575:
	.loc 1 650 0 is_stmt 0 discriminator 1
	ldrb	w18, [x6, -1]
.LVL589:
	lsr	x10, x0, 59
	ldrb	w5, [x1, -1]
.LVL590:
	lsl	x10, x10, 5
	ldrb	w15, [x19, 56]
	cmp	w18, 0
	add	x3, x19, x18, sxtw 3
	ldrb	w17, [x19, 57]
	ubfiz	x16, x5, 10, 8
	add	w5, w5, 1
	and	w5, w5, 255
	csel	w15, w15, w17, eq
	ldr	x3, [x3, 128]
	cmp	w15, w5
	add	x3, x3, x16
	add	x3, x3, x2, lsr 59
	ldrb	w3, [x3, x10]
	ubfiz	w3, w3, 6, 2
	orr	w8, w3, w8
	beq	.L539
	.loc 1 650 0 discriminator 9
	strb	w5, [x1, -1]
.LVL591:
.L477:
.LBE1575:
	.loc 1 651 0 is_stmt 1 discriminator 10
	cbnz	w14, .L480
.L481:
	.loc 1 653 0
	strb	w8, [x4, 1]
	.loc 1 640 0
	mov	w3, 1
.LVL592:
.L455:
	add	w9, w9, 2
	add	x7, x7, 8
	add	x1, x1, 8
	add	x6, x6, 8
.LBE1566:
.LBE1565:
	.loc 1 630 0 discriminator 2
	cmp	w9, w11
	bne	.L482
	add	x24, x24, x12
	add	x25, x25, x12
	add	x20, x20, x12
	add	x21, x21, x12
.L484:
	.loc 1 629 0
	add	w23, w23, 1
	add	x22, x22, x13
	cmp	w26, w23
	bne	.L453
	.loc 1 663 0
	str	w3, [x28]
	.loc 1 664 0
	ldp	x19, x20, [sp, 16]
.LVL593:
	ldp	x21, x22, [sp, 32]
.LVL594:
	ldp	x23, x24, [sp, 48]
.LVL595:
	ldp	x25, x26, [sp, 64]
.LVL596:
	ldp	x27, x28, [sp, 80]
.LVL597:
	ldp	x29, x30, [sp], 112
	.cfi_remember_state
	.cfi_restore 30
	.cfi_restore 29
	.cfi_restore 27
	.cfi_restore 28
	.cfi_restore 25
	.cfi_restore 26
	.cfi_restore 23
	.cfi_restore 24
	.cfi_restore 21
	.cfi_restore 22
	.cfi_restore 19
	.cfi_restore 20
	.cfi_def_cfa 31, 0
	ret
.LVL598:
	.p2align 3
.L539:
	.cfi_restore_state
.LBB1585:
.LBB1584:
.LBB1576:
	.loc 1 650 0 discriminator 7
	and	x0, x0, 72057594037927935
.LVL599:
	and	x2, x2, -72057594037927936
.LVL600:
	orr	x0, x2, x0
.LVL601:
	strb	wzr, [x1, -1]
.LVL602:
.L480:
.LBE1576:
	.loc 1 652 0
	str	x0, [x20, x7]
	b	.L481
.LVL603:
	.p2align 3
.L538:
.LBB1577:
	.loc 1 649 0 discriminator 7
	and	x0, x0, -71776119061217281
.LVL604:
	and	x3, x2, 71776119061217280
	orr	x0, x3, x0
.LVL605:
	mov	w10, 0
	mov	w14, 1
	b	.L476
	.p2align 3
.L537:
.LBE1577:
.LBB1578:
	.loc 1 648 0 discriminator 7
	and	x0, x0, -280375465082881
.LVL606:
	and	x3, x2, 280375465082880
	orr	x0, x3, x0
.LVL607:
	mov	w10, 0
	mov	w14, 1
	b	.L473
	.p2align 3
.L535:
.LBE1578:
.LBB1579:
	.loc 1 644 0 discriminator 7
	and	x3, x2, 4278190080
	and	x0, x0, -4278190081
.LVL608:
	orr	x0, x3, x0
.LVL609:
	mov	w14, 1
	mov	w3, 0
	b	.L467
.LVL610:
	.p2align 3
.L536:
.LBE1579:
.LBB1580:
	.loc 1 647 0 discriminator 7
	and	x3, x2, 1095216660480
	and	x0, x0, -1095216660481
.LVL611:
	orr	x0, x3, x0
.LVL612:
	mov	w14, 1
	mov	w3, 0
	b	.L470
.LVL613:
	.p2align 3
.L534:
.LBE1580:
.LBB1581:
	.loc 1 643 0 discriminator 7
	and	x3, x2, 16711680
	and	x0, x0, -16711681
.LVL614:
	orr	x0, x3, x0
.LVL615:
	mov	w14, 1
	mov	w3, 0
	b	.L464
	.p2align 3
.L532:
.LBE1581:
.LBB1582:
	.loc 1 641 0 discriminator 7
	bfi	x0, x2, 0, 8
	mov	w3, 0
	mov	w14, 1
	b	.L458
	.p2align 3
.L533:
.LBE1582:
.LBB1583:
	.loc 1 642 0 discriminator 7
	and	x3, x2, 65280
	and	x0, x0, -65281
.LVL616:
	orr	x0, x3, x0
.LVL617:
	mov	w14, 1
	mov	w3, 0
	b	.L461
.LVL618:
	.p2align 3
.L487:
.LBE1583:
	.loc 1 637 0
	mov	w8, 0
	.loc 1 635 0
	mov	w14, 0
	b	.L456
.LVL619:
.L451:
.LBE1584:
.LBE1585:
	.loc 1 626 0
	sub	w2, w26, w23
	.loc 1 625 0
	mul	w22, w23, w13
	str	w13, [x29, 108]
	.loc 1 626 0
	mov	w1, 0
	mul	w2, w2, w13
	.loc 1 625 0
	add	x22, x5, x22, sxtw
.LVL620:
	.loc 1 626 0
	mov	x0, x22
	sxtw	x2, w2
	bl	memset
.LVL621:
	ldr	w13, [x29, 108]
	.loc 1 629 0
	cmp	w23, w26
	blt	.L540
.LVL622:
.L486:
	mov	w3, 0
.LVL623:
	.loc 1 663 0
	str	w3, [x28]
	.loc 1 664 0
	ldp	x19, x20, [sp, 16]
.LVL624:
	ldp	x21, x22, [sp, 32]
.LVL625:
	ldp	x23, x24, [sp, 48]
.LVL626:
	ldp	x25, x26, [sp, 64]
.LVL627:
	ldp	x27, x28, [sp, 80]
.LVL628:
	ldp	x29, x30, [sp], 112
	.cfi_remember_state
	.cfi_restore 20
	.cfi_restore 19
	.cfi_restore 22
	.cfi_restore 21
	.cfi_restore 24
	.cfi_restore 23
	.cfi_restore 26
	.cfi_restore 25
	.cfi_restore 28
	.cfi_restore 27
	.cfi_restore 29
	.cfi_restore 30
	.cfi_def_cfa 31, 0
	ret
.LVL629:
.L530:
	.cfi_restore_state
	.loc 1 607 0
	add	w26, w0, w0, lsr 31
	.loc 1 606 0
	mov	w23, 0
.LVL630:
	.loc 1 607 0
	asr	w26, w26, 1
.LVL631:
	b	.L450
.L531:
	.loc 1 609 0
	add	w23, w0, w0, lsr 31
.LVL632:
	.loc 1 614 0
	add	x28, x19, 64
	.loc 1 609 0
	asr	w23, w23, 1
.LVL633:
	.loc 1 610 0
	mul	w1, w27, w23
	sbfiz	x1, x1, 3, 32
	add	x21, x21, x1
	.loc 1 611 0
	add	x20, x2, x1
	.loc 1 612 0
	mul	w1, w23, w13
	add	x24, x3, x1
	.loc 1 613 0
	add	x25, x4, x1
	b	.L450
	.cfi_endproc
.LFE2820:
	.size	get_overlay_image, .-get_overlay_image
	.align	2
	.p2align 3,,7
	.type	frame_done_callback, %function
frame_done_callback:
.LFB2838:
	.loc 1 2069 0
	.cfi_startproc
	stp	x29, x30, [sp, -48]!
	.cfi_def_cfa_offset 48
	.cfi_offset 29, -48
	.cfi_offset 30, -40
	.loc 1 2070 0
	adrp	x0, .LANCHOR0
	.loc 1 2069 0
	add	x29, sp, 0
	.cfi_def_cfa_register 29
	stp	x19, x20, [sp, 16]
	.cfi_offset 19, -32
	.cfi_offset 20, -24
	.loc 1 2070 0
	ldr	x20, [x0, #:lo12:.LANCHOR0]
	.loc 1 2069 0
	str	x21, [sp, 32]
	.cfi_offset 21, -16
	.loc 1 2072 0
	add	x19, x20, 192
	ldr	w1, [x19, 252]
	cmp	w1, 3
	beq	.L543
	cmp	w1, 4
	beq	.L560
	add	x2, x0, :lo12:.LANCHOR0
	.loc 1 2105 0
	ldr	w0, [x19, 72]
	cbnz	w0, .L561
	.loc 1 2110 0
	ldr	x0, [x19, 104]
	adrp	x1, .LC19
	.loc 1 2109 0
	str	wzr, [x19, 52]
	.loc 1 2110 0
	add	x1, x1, :lo12:.LC19
	bl	_dev_info
.LVL634:
.L559:
	.loc 1 2111 0
	adrp	x0, .LANCHOR1
	add	x0, x0, :lo12:.LANCHOR1
	mov	w2, 1
	add	x0, x0, 304
	mov	w1, w2
	bl	__wake_up_sync
.LVL635:
.L541:
	.loc 1 2115 0
	ldp	x19, x20, [sp, 16]
	ldr	x21, [sp, 32]
	ldp	x29, x30, [sp], 48
	.cfi_remember_state
	.cfi_restore 30
	.cfi_restore 29
	.cfi_restore 21
	.cfi_restore 19
	.cfi_restore 20
	.cfi_def_cfa 31, 0
	ret
	.p2align 3
.L560:
	.cfi_restore_state
	.loc 1 2075 0
	ldr	w1, [x19, 60]
	.loc 1 2074 0
	mov	w21, 1
	str	w21, [x19, 76]
	.loc 1 2075 0
	cbnz	w1, .L548
	.loc 1 2075 0 is_stmt 0 discriminator 1
	ldr	w1, [x19, 64]
	cbnz	w1, .L548
	.loc 1 2077 0 is_stmt 1
	ldr	w1, [x19, 68]
	cbz	w1, .L548
	.loc 1 2081 0
	ldr	x0, [x19, 104]
	adrp	x1, .LC17
	add	x1, x1, :lo12:.LC17
	bl	_dev_info
.LVL636:
	.loc 1 2083 0
	ldp	w3, w2, [x19, 92]
	mov	w1, 0
	ldr	x0, [x19, 168]
	mul	w2, w2, w3
	sxtw	x2, w2
	bl	memset
.LVL637:
	.loc 1 2084 0
	adrp	x2, jiffies
	add	x0, x20, 720
	mov	x1, 402653184
	ldr	x2, [x2, #:lo12:jiffies]
	add	x1, x2, x1
	bl	mod_timer
.LVL638:
	.loc 1 2085 0
	str	wzr, [x19, 52]
	.loc 1 2086 0
	adrp	x0, .LANCHOR1
	add	x0, x0, :lo12:.LANCHOR1
	mov	w2, w21
	mov	w1, w21
	add	x0, x0, 304
	bl	__wake_up_sync
.LVL639:
	b	.L541
	.p2align 3
.L543:
	.loc 1 2090 0
	ldr	w1, [x19, 60]
	cbnz	w1, .L548
	.loc 1 2090 0 is_stmt 0 discriminator 1
	ldr	w1, [x19, 64]
	cbz	w1, .L549
.L548:
	.loc 1 2091 0 is_stmt 1
	add	x0, x0, :lo12:.LANCHOR0
	ldr	x0, [x0, 8]
	bl	wake_up_process
.LVL640:
	.loc 1 2115 0
	ldr	x21, [sp, 32]
	ldp	x19, x20, [sp, 16]
	ldp	x29, x30, [sp], 48
	.cfi_remember_state
	.cfi_restore 20
	.cfi_restore 19
	.cfi_restore 21
	.cfi_restore 29
	.cfi_restore 30
	.cfi_def_cfa 31, 0
	ret
	.p2align 3
.L549:
	.cfi_restore_state
	.loc 1 2092 0
	ldr	w1, [x19, 68]
	cbz	w1, .L548
	.loc 1 2096 0
	ldr	x0, [x19, 104]
	adrp	x1, .LC18
	add	x1, x1, :lo12:.LC18
	bl	_dev_info
.LVL641:
	.loc 1 2098 0
	ldp	w3, w2, [x19, 92]
	mov	w1, 0
	ldr	x0, [x19, 168]
	mul	w2, w2, w3
	sxtw	x2, w2
	bl	memset
.LVL642:
	.loc 1 2099 0
	adrp	x2, jiffies
	mov	x1, 402653184
	add	x0, x20, 720
	ldr	x2, [x2, #:lo12:jiffies]
	add	x1, x2, x1
	bl	mod_timer
.LVL643:
	.loc 1 2100 0
	str	wzr, [x19, 52]
	b	.L559
	.p2align 3
.L561:
	.loc 1 2107 0
	ldr	x0, [x2, 8]
	.loc 1 2106 0
	mov	w1, 1
	str	w1, [x19, 52]
	.loc 1 2107 0
	bl	wake_up_process
.LVL644:
	.loc 1 2115 0
	ldr	x21, [sp, 32]
	ldp	x19, x20, [sp, 16]
	ldp	x29, x30, [sp], 48
	.cfi_restore 20
	.cfi_restore 19
	.cfi_restore 21
	.cfi_restore 29
	.cfi_restore 30
	.cfi_def_cfa 31, 0
	ret
	.cfi_endproc
.LFE2838:
	.size	frame_done_callback, .-frame_done_callback
	.align	2
	.p2align 3,,7
	.type	ebc_frame_timeout, %function
ebc_frame_timeout:
.LFB2847:
	.loc 1 2868 0
	.cfi_startproc
.LVL645:
	stp	x29, x30, [sp, -16]!
	.cfi_def_cfa_offset 16
	.cfi_offset 29, -16
	.cfi_offset 30, -8
	add	x29, sp, 0
	.cfi_def_cfa_register 29
	.loc 1 2869 0
	bl	frame_done_callback
.LVL646:
	.loc 1 2871 0
	ldp	x29, x30, [sp], 16
	.cfi_restore 30
	.cfi_restore 29
	.cfi_def_cfa 31, 0
	ret
	.cfi_endproc
.LFE2847:
	.size	ebc_frame_timeout, .-ebc_frame_timeout
	.align	2
	.p2align 3,,7
	.type	ebc_lut_update, %function
ebc_lut_update:
.LFB2840:
	.loc 1 2161 0
	.cfi_startproc
.LVL647:
	stp	x29, x30, [sp, -64]!
	.cfi_def_cfa_offset 64
	.cfi_offset 29, -64
	.cfi_offset 30, -56
	.loc 1 2163 0
	mov	w4, 25
	.loc 1 2161 0
	add	x29, sp, 0
	.cfi_def_cfa_register 29
	stp	x19, x20, [sp, 16]
	.cfi_offset 19, -48
	.cfi_offset 20, -40
	mov	x20, x0
	stp	x21, x22, [sp, 32]
	.cfi_offset 21, -32
	.cfi_offset 22, -24
	.loc 1 2163 0
	add	x0, x29, 64
.LVL648:
	.loc 1 2161 0
	adrp	x19, __stack_chk_guard
	add	x3, x19, :lo12:__stack_chk_guard
	.loc 1 2168 0
	ldr	x2, [x20, 16]
	.loc 1 2161 0
	mov	w22, w1
	.loc 1 2163 0
	str	w4, [x0, -12]!
.LVL649:
	.loc 1 2161 0
	ldr	x1, [x3]
	str	x1, [x29, 56]
	mov	x1,0
.LVL650:
.LBB1586:
.LBB1587:
	.loc 3 50 0
	mov	x1, x0
	mov	x0, x2
	ldr	x2, [x2, 56]
	blr	x2
.LVL651:
.LBE1587:
.LBE1586:
	.loc 1 2169 0
	cbnz	w0, .L565
.LVL652:
	.loc 1 2170 0
	ldr	w2, [x29, 52]
	.loc 1 2171 0
	add	x21, x20, 192
	.loc 1 2170 0
	tbnz	w2, #31, .L588
	.loc 1 2174 0
	cmp	w2, 50
	bgt	.L589
.L567:
	.loc 1 2182 0
	ldr	x0, [x21, 104]
	adrp	x1, .LC23
	add	x1, x1, :lo12:.LC23
	bl	_dev_info
.LVL653:
	.loc 1 2185 0
	cmp	w22, 23
	bls	.L590
.L568:
	.loc 1 2241 0
	mov	w0, 12
	.loc 1 2242 0
	mov	w1, 3
	.loc 1 2241 0
	str	w0, [x21, 144]
	.p2align 2
.L571:
	.loc 1 2245 0
	ldr	w2, [x29, 52]
	add	x0, x20, 304
	mov	w3, 32
	bl	epd_lut_get
.LVL654:
	mov	w20, w0
.LVL655:
	.loc 1 2246 0
	cbz	w0, .L564
	.loc 1 2247 0
	ldr	x0, [x21, 104]
	adrp	x1, .LC24
	add	x1, x1, :lo12:.LC24
	bl	_dev_err
.LVL656:
.L564:
	.loc 1 2252 0
	add	x19, x19, :lo12:__stack_chk_guard
	mov	w0, w20
	ldr	x2, [x29, 56]
	ldr	x1, [x19]
	eor	x1, x2, x1
	cbnz	x1, .L591
	ldp	x19, x20, [sp, 16]
	ldp	x21, x22, [sp, 32]
.LVL657:
	ldp	x29, x30, [sp], 64
	.cfi_remember_state
	.cfi_restore 30
	.cfi_restore 29
	.cfi_restore 21
	.cfi_restore 22
	.cfi_restore 19
	.cfi_restore 20
	.cfi_def_cfa 31, 0
	ret
.LVL658:
	.p2align 3
.L590:
	.cfi_restore_state
	.loc 1 2185 0
	adrp	x0, .L570
	add	x0, x0, :lo12:.L570
	ldrb	w0, [x0,w22,uxtw]
	adr	x1, .Lrtx570
	add	x0, x1, w0, sxtb #2
	br	x0
.Lrtx570:
	.section	.rodata
	.align	0
	.align	2
.L570:
	.byte	(.L568 - .Lrtx570) / 4
	.byte	(.L582 - .Lrtx570) / 4
	.byte	(.L568 - .Lrtx570) / 4
	.byte	(.L572 - .Lrtx570) / 4
	.byte	(.L573 - .Lrtx570) / 4
	.byte	(.L574 - .Lrtx570) / 4
	.byte	(.L575 - .Lrtx570) / 4
	.byte	(.L568 - .Lrtx570) / 4
	.byte	(.L572 - .Lrtx570) / 4
	.byte	(.L573 - .Lrtx570) / 4
	.byte	(.L574 - .Lrtx570) / 4
	.byte	(.L575 - .Lrtx570) / 4
	.byte	(.L576 - .Lrtx570) / 4
	.byte	(.L576 - .Lrtx570) / 4
	.byte	(.L577 - .Lrtx570) / 4
	.byte	(.L578 - .Lrtx570) / 4
	.byte	(.L577 - .Lrtx570) / 4
	.byte	(.L579 - .Lrtx570) / 4
	.byte	(.L568 - .Lrtx570) / 4
	.byte	(.L568 - .Lrtx570) / 4
	.byte	(.L568 - .Lrtx570) / 4
	.byte	(.L568 - .Lrtx570) / 4
	.byte	(.L577 - .Lrtx570) / 4
	.byte	(.L578 - .Lrtx570) / 4
	.text
.LVL659:
	.p2align 3
.L565:
	.loc 1 2180 0
	add	x21, x20, 192
	mov	w2, w0
	adrp	x1, .LC22
	add	x1, x1, :lo12:.LC22
	ldr	x0, [x21, 104]
	bl	_dev_err
.LVL660:
	ldr	w2, [x29, 52]
	b	.L567
	.p2align 3
.L589:
	.loc 1 2175 0
	ldr	x0, [x21, 104]
	adrp	x1, .LC21
	add	x1, x1, :lo12:.LC21
	bl	_dev_info
.LVL661:
	.loc 1 2176 0
	mov	w2, 50
	str	w2, [x29, 52]
.LVL662:
	b	.L567
	.p2align 3
.L582:
	.loc 1 2185 0
	mov	w1, 10
	b	.L571
	.p2align 3
.L579:
	.loc 1 2189 0
	mov	w1, 0
	.loc 1 2188 0
	str	wzr, [x21, 144]
	.loc 1 2189 0
	b	.L571
	.p2align 3
.L572:
	.loc 1 2222 0
	mov	w0, 12
	.loc 1 2223 0
	mov	w1, 4
	.loc 1 2222 0
	str	w0, [x21, 144]
	.loc 1 2223 0
	b	.L571
	.p2align 3
.L573:
	.loc 1 2227 0
	mov	w0, 12
	.loc 1 2228 0
	mov	w1, 5
	.loc 1 2227 0
	str	w0, [x21, 144]
	.loc 1 2228 0
	b	.L571
	.p2align 3
.L574:
	.loc 1 2232 0
	mov	w0, 12
	.loc 1 2233 0
	mov	w1, 6
	.loc 1 2232 0
	str	w0, [x21, 144]
	.loc 1 2233 0
	b	.L571
	.p2align 3
.L575:
	.loc 1 2237 0
	mov	w0, 12
	.loc 1 2238 0
	mov	w1, 8
	.loc 1 2237 0
	str	w0, [x21, 144]
	.loc 1 2238 0
	b	.L571
	.p2align 3
.L576:
	.loc 1 2206 0
	mov	w1, 7
	str	w1, [x21, 144]
	.loc 1 2207 0
	b	.L571
	.p2align 3
.L577:
	.loc 1 2212 0
	mov	w1, 1
	str	w1, [x21, 144]
	.loc 1 2213 0
	b	.L571
	.p2align 3
.L578:
	.loc 1 2217 0
	mov	w1, 2
	str	w1, [x21, 144]
	.loc 1 2218 0
	b	.L571
	.p2align 3
.L588:
	.loc 1 2171 0
	ldr	x0, [x21, 104]
	adrp	x1, .LC20
	add	x1, x1, :lo12:.LC20
	bl	_dev_info
.LVL663:
	.loc 1 2172 0
	str	wzr, [x29, 52]
	mov	w2, 0
	b	.L567
.LVL664:
.L591:
	.loc 1 2252 0
	bl	__stack_chk_fail
.LVL665:
	.cfi_endproc
.LFE2840:
	.size	ebc_lut_update, .-ebc_lut_update
	.align	2
	.p2align 3,,7
	.type	ebc_state_read, %function
ebc_state_read:
.LFB2860:
	.loc 1 3298 0
	.cfi_startproc
.LVL666:
	stp	x29, x30, [sp, -16]!
	.cfi_def_cfa_offset 16
	.cfi_offset 29, -16
	.cfi_offset 30, -8
	.loc 1 3299 0
	adrp	x3, .LANCHOR0
	.loc 1 3298 0
	mov	x0, x2
.LVL667:
	.loc 1 3299 0
	adrp	x1, .LC25
.LVL668:
	.loc 1 3298 0
	add	x29, sp, 0
	.cfi_def_cfa_register 29
	.loc 1 3299 0
	ldr	x2, [x3, #:lo12:.LANCHOR0]
.LVL669:
	add	x1, x1, :lo12:.LC25
	ldr	w2, [x2, 656]
	bl	sprintf
.LVL670:
	.loc 1 3300 0
	sxtw	x0, w0
	ldp	x29, x30, [sp], 16
	.cfi_restore 30
	.cfi_restore 29
	.cfi_def_cfa 31, 0
	ret
	.cfi_endproc
.LFE2860:
	.size	ebc_state_read, .-ebc_state_read
	.align	2
	.p2align 3,,7
	.type	ebc_version_read, %function
ebc_version_read:
.LFB2859:
	.loc 1 3289 0
	.cfi_startproc
.LVL671:
	stp	x29, x30, [sp, -16]!
	.cfi_def_cfa_offset 16
	.cfi_offset 29, -16
	.cfi_offset 30, -8
	mov	x0, x2
.LVL672:
	.loc 1 3290 0
	adrp	x1, .LC27
.LVL673:
	adrp	x2, .LC26
.LVL674:
	.loc 1 3289 0
	add	x29, sp, 0
	.cfi_def_cfa_register 29
	.loc 1 3290 0
	add	x2, x2, :lo12:.LC26
	.loc 1 3289 0
	.loc 1 3290 0
	add	x1, x1, :lo12:.LC27
	bl	sprintf
.LVL675:
	.loc 1 3291 0
	sxtw	x0, w0
	ldp	x29, x30, [sp], 16
	.cfi_restore 30
	.cfi_restore 29
	.cfi_def_cfa 31, 0
	ret
	.cfi_endproc
.LFE2859:
	.size	ebc_version_read, .-ebc_version_read
	.align	2
	.p2align 3,,7
	.type	pmic_vcom_read, %function
pmic_vcom_read:
.LFB2857:
	.loc 1 3253 0
	.cfi_startproc
.LVL676:
	stp	x29, x30, [sp, -32]!
	.cfi_def_cfa_offset 32
	.cfi_offset 29, -32
	.cfi_offset 30, -24
	.loc 1 3254 0
	adrp	x0, .LANCHOR0
.LVL677:
	.loc 1 3253 0
	add	x29, sp, 0
	.cfi_def_cfa_register 29
	.loc 1 3257 0
	ldr	x0, [x0, #:lo12:.LANCHOR0]
	.loc 1 3253 0
	str	x19, [sp, 16]
	.cfi_offset 19, -16
	.loc 1 3253 0
	mov	x19, x2
	.loc 1 3257 0
	ldr	x1, [x0, 16]
.LVL678:
.LBB1588:
.LBB1589:
	.loc 3 55 0
	mov	x0, x1
	ldr	x1, [x1, 64]
	blr	x1
.LVL679:
.LBE1589:
.LBE1588:
	.loc 1 3259 0
	mov	w2, w0
	adrp	x1, .LC25
	mov	x0, x19
	add	x1, x1, :lo12:.LC25
	bl	sprintf
.LVL680:
	.loc 1 3260 0
	sxtw	x0, w0
	ldr	x19, [sp, 16]
.LVL681:
	ldp	x29, x30, [sp], 32
	.cfi_restore 30
	.cfi_restore 29
	.cfi_restore 19
	.cfi_def_cfa 31, 0
	ret
	.cfi_endproc
.LFE2857:
	.size	pmic_vcom_read, .-pmic_vcom_read
	.align	2
	.p2align 3,,7
	.type	pmic_temp_read, %function
pmic_temp_read:
.LFB2856:
	.loc 1 3239 0
	.cfi_startproc
.LVL682:
	stp	x29, x30, [sp, -48]!
	.cfi_def_cfa_offset 48
	.cfi_offset 29, -48
	.cfi_offset 30, -40
	.loc 1 3240 0
	adrp	x0, .LANCHOR0
.LVL683:
	.loc 1 3239 0
	add	x29, sp, 0
	.cfi_def_cfa_register 29
	.loc 1 3243 0
	ldr	x0, [x0, #:lo12:.LANCHOR0]
.LBB1590:
.LBB1591:
	.loc 3 50 0
	add	x1, x29, 36
.LVL684:
.LBE1591:
.LBE1590:
	.loc 1 3239 0
	stp	x19, x20, [sp, 16]
	.cfi_offset 19, -32
	.cfi_offset 20, -24
	.loc 1 3239 0
	adrp	x19, __stack_chk_guard
	add	x19, x19, :lo12:__stack_chk_guard
	mov	x20, x2
	ldr	x2, [x19]
	str	x2, [x29, 40]
	mov	x2,0
.LVL685:
	.loc 1 3243 0
	ldr	x2, [x0, 16]
.LBB1593:
.LBB1592:
	.loc 3 50 0
	mov	x0, x2
	ldr	x2, [x2, 56]
	blr	x2
.LVL686:
.LBE1592:
.LBE1593:
	.loc 1 3245 0
	ldr	w2, [x29, 36]
	adrp	x1, .LC25
	mov	x0, x20
	add	x1, x1, :lo12:.LC25
	bl	sprintf
.LVL687:
	.loc 1 3246 0
	ldr	x2, [x29, 40]
	ldr	x1, [x19]
	eor	x1, x2, x1
	cbnz	x1, .L601
	ldp	x19, x20, [sp, 16]
.LVL688:
	sxtw	x0, w0
	ldp	x29, x30, [sp], 48
	.cfi_remember_state
	.cfi_restore 30
	.cfi_restore 29
	.cfi_restore 19
	.cfi_restore 20
	.cfi_def_cfa 31, 0
	ret
.LVL689:
.L601:
	.cfi_restore_state
	bl	__stack_chk_fail
.LVL690:
	.cfi_endproc
.LFE2856:
	.size	pmic_temp_read, .-pmic_temp_read
	.align	2
	.p2align 3,,7
	.type	pmic_name_read, %function
pmic_name_read:
.LFB2855:
	.loc 1 3228 0
	.cfi_startproc
.LVL691:
	stp	x29, x30, [sp, -16]!
	.cfi_def_cfa_offset 16
	.cfi_offset 29, -16
	.cfi_offset 30, -8
	.loc 1 3229 0
	adrp	x3, .LANCHOR0
	.loc 1 3228 0
	mov	x0, x2
.LVL692:
	.loc 1 3231 0
	adrp	x1, .LC27
.LVL693:
	.loc 1 3228 0
	add	x29, sp, 0
	.cfi_def_cfa_register 29
	.loc 1 3231 0
	ldr	x2, [x3, #:lo12:.LANCHOR0]
.LVL694:
	add	x1, x1, :lo12:.LC27
	ldr	x2, [x2, 16]
	add	x2, x2, 8
	bl	sprintf
.LVL695:
	.loc 1 3232 0
	sxtw	x0, w0
	ldp	x29, x30, [sp], 16
	.cfi_restore 30
	.cfi_restore 29
	.cfi_def_cfa 31, 0
	ret
	.cfi_endproc
.LFE2855:
	.size	pmic_name_read, .-pmic_name_read
	.align	2
	.p2align 3,,7
	.type	ebc_buf_state_read, %function
ebc_buf_state_read:
.LFB2861:
	.loc 1 3307 0
	.cfi_startproc
.LVL696:
	stp	x29, x30, [sp, -16]!
	.cfi_def_cfa_offset 16
	.cfi_offset 29, -16
	.cfi_offset 30, -8
	.loc 1 3308 0
	mov	x0, x2
.LVL697:
	.loc 1 3307 0
	add	x29, sp, 0
	.cfi_def_cfa_register 29
	.loc 1 3308 0
	bl	ebc_buf_state_show
.LVL698:
	.loc 1 3309 0
	sxtw	x0, w0
	ldp	x29, x30, [sp], 16
	.cfi_restore 30
	.cfi_restore 29
	.cfi_def_cfa 31, 0
	ret
	.cfi_endproc
.LFE2861:
	.size	ebc_buf_state_read, .-ebc_buf_state_read
	.align	2
	.p2align 3,,7
	.type	pmic_vcom_write, %function
pmic_vcom_write:
.LFB2858:
	.loc 1 3265 0
	.cfi_startproc
.LVL699:
	stp	x29, x30, [sp, -64]!
	.cfi_def_cfa_offset 64
	.cfi_offset 29, -64
	.cfi_offset 30, -56
	.loc 1 3266 0
	adrp	x0, .LANCHOR0
.LVL700:
	.loc 1 3265 0
	add	x29, sp, 0
	.cfi_def_cfa_register 29
	stp	x19, x20, [sp, 16]
	.cfi_offset 19, -48
	.cfi_offset 20, -40
	adrp	x19, __stack_chk_guard
	stp	x21, x22, [sp, 32]
	.cfi_offset 21, -32
	.cfi_offset 22, -24
	.loc 1 3265 0
	add	x1, x19, :lo12:__stack_chk_guard
.LVL701:
	mov	x21, x2
	.loc 1 3266 0
	ldr	x22, [x0, #:lo12:.LANCHOR0]
.LVL702:
	.loc 1 3265 0
	ldr	x2, [x1]
	str	x2, [x29, 56]
	mov	x2,0
.LVL703:
	mov	x20, x3
	.loc 1 3269 0
	add	x2, x29, 52
	mov	w1, 0
	mov	x0, x21
	bl	kstrtouint
.LVL704:
	.loc 1 3270 0
	cbnz	w0, .L613
.LVL705:
	.loc 1 3274 0
	ldr	w1, [x29, 52]
	ldr	x0, [x22, 16]
	bl	ebc_pmic_set_vcom
.LVL706:
	.loc 1 3275 0
	cbnz	w0, .L614
.L606:
	.loc 1 3281 0
	add	x19, x19, :lo12:__stack_chk_guard
	mov	x0, x20
.LVL707:
	ldr	x2, [x29, 56]
	ldr	x1, [x19]
	eor	x1, x2, x1
	cbnz	x1, .L615
	ldp	x19, x20, [sp, 16]
	ldp	x21, x22, [sp, 32]
.LVL708:
	ldp	x29, x30, [sp], 64
	.cfi_remember_state
	.cfi_restore 30
	.cfi_restore 29
	.cfi_restore 21
	.cfi_restore 22
	.cfi_restore 19
	.cfi_restore 20
	.cfi_def_cfa 31, 0
	ret
.LVL709:
	.p2align 3
.L613:
	.cfi_restore_state
	.loc 1 3271 0
	ldr	x0, [x22]
	adrp	x1, .LC28
	mov	x2, x21
	add	x1, x1, :lo12:.LC28
	.loc 1 3272 0
	mov	x20, -1
.LVL710:
	.loc 1 3271 0
	bl	_dev_err
.LVL711:
	.loc 1 3272 0
	b	.L606
.LVL712:
	.p2align 3
.L614:
	.loc 1 3276 0
	ldr	x0, [x22]
	adrp	x1, .LC29
	.loc 1 3277 0
	mov	x20, -1
.LVL713:
	.loc 1 3276 0
	add	x1, x1, :lo12:.LC29
	bl	_dev_err
.LVL714:
	.loc 1 3277 0
	b	.L606
.L615:
	.loc 1 3281 0
	bl	__stack_chk_fail
.LVL715:
	.cfi_endproc
.LFE2858:
	.size	pmic_vcom_write, .-pmic_vcom_write
	.align	2
	.p2align 3,,7
	.type	waveform_version_read, %function
waveform_version_read:
.LFB2854:
	.loc 1 3217 0
	.cfi_startproc
.LVL716:
	stp	x29, x30, [sp, -32]!
	.cfi_def_cfa_offset 32
	.cfi_offset 29, -32
	.cfi_offset 30, -24
	add	x29, sp, 0
	.cfi_def_cfa_register 29
	str	x19, [sp, 16]
	.cfi_offset 19, -16
	.loc 1 3217 0
	mov	x19, x2
	.loc 1 3218 0
	bl	epd_lut_get_wf_version
.LVL717:
	.loc 1 3220 0
	mov	x2, x0
	adrp	x1, .LC27
	mov	x0, x19
	add	x1, x1, :lo12:.LC27
	bl	sprintf
.LVL718:
	.loc 1 3221 0
	sxtw	x0, w0
	ldr	x19, [sp, 16]
.LVL719:
	ldp	x29, x30, [sp], 32
	.cfi_restore 30
	.cfi_restore 29
	.cfi_restore 19
	.cfi_def_cfa 31, 0
	ret
	.cfi_endproc
.LFE2854:
	.size	waveform_version_read, .-waveform_version_read
	.section	.init.text,"ax",@progbits
	.align	2
	.type	ebc_init, %function
ebc_init:
.LFB2874:
	.loc 1 3822 0
	.cfi_startproc
	stp	x29, x30, [sp, -16]!
	.cfi_def_cfa_offset 16
	.cfi_offset 29, -16
	.cfi_offset 30, -8
	.loc 1 3823 0
	mov	x1, 0
	adrp	x0, .LANCHOR1
	add	x0, x0, :lo12:.LANCHOR1
	.loc 1 3822 0
	add	x29, sp, 0
	.cfi_def_cfa_register 29
	.loc 1 3823 0
	bl	__platform_driver_register
.LVL720:
	.loc 1 3824 0
	ldp	x29, x30, [sp], 16
	.cfi_restore 30
	.cfi_restore 29
	.cfi_def_cfa 31, 0
	ret
	.cfi_endproc
.LFE2874:
	.size	ebc_init, .-ebc_init
	.text
	.align	2
	.p2align 3,,7
	.type	get_overlay_image_area2.isra.0, %function
get_overlay_image_area2.isra.0:
.LFB2876:
	.loc 1 997 0
	.cfi_startproc
.LVL721:
	stp	x29, x30, [sp, -128]!
	.cfi_def_cfa_offset 128
	.cfi_offset 29, -128
	.cfi_offset 30, -120
	.loc 1 999 0
	adrp	x5, .LANCHOR0
	.loc 1 997 0
	mov	x10, x0
	add	x29, sp, 0
	.cfi_def_cfa_register 29
	.loc 1 999 0
	ldr	x5, [x5, #:lo12:.LANCHOR0]
	.loc 1 997 0
	stp	x19, x20, [sp, 16]
	.loc 1 1027 0
	add	x5, x5, 24
	.loc 1 997 0
	stp	x5, x0, [x29, 96]
	.loc 1 1015 0
	ldr	x0, [x4, 240]
.LVL722:
	.loc 1 997 0
	stp	x21, x22, [sp, 32]
	stp	x23, x24, [sp, 48]
	stp	x25, x26, [sp, 64]
	stp	x27, x28, [sp, 80]
	.cfi_offset 19, -112
	.cfi_offset 20, -104
	.cfi_offset 21, -96
	.cfi_offset 22, -88
	.cfi_offset 23, -80
	.cfi_offset 24, -72
	.cfi_offset 25, -64
	.cfi_offset 26, -56
	.cfi_offset 27, -48
	.cfi_offset 28, -40
	.loc 1 1020 0
	ldr	w17, [x4, 96]
	.loc 1 1017 0
	ldp	w7, w21, [x0, 48]
	.loc 1 1027 0
	ldr	w13, [x5, 84]
	.loc 1 1016 0
	ldr	w5, [x0, 56]
	.loc 1 1015 0
	cmp	w7, 0
	add	w6, w7, 7
	csel	w6, w6, w7, lt
	.loc 1 1016 0
	add	w30, w5, 7
	cmp	w5, 0
	.loc 1 1015 0
	asr	w7, w6, 3
.LVL723:
	.loc 1 1016 0
	csel	w30, w30, w5, lt
	.loc 1 1018 0
	ldr	w5, [x0, 60]
	.loc 1 1020 0
	cmp	w17, 0
	add	w0, w17, 7
	csel	w0, w0, w17, lt
	.loc 1 1016 0
	asr	w30, w30, 3
.LVL724:
	.loc 1 1018 0
	mov	w9, w5
	.loc 1 1016 0
	add	w30, w30, 1
.LVL725:
	.loc 1 1020 0
	asr	w5, w0, 3
.LVL726:
	.loc 1 1021 0
	ldr	w0, [x4, 92]
	.loc 1 1023 0
	cmp	w30, w5
.LVL727:
	.loc 1 1027 0
	mul	w13, w21, w13
	.loc 1 1020 0
	mov	w6, w5
	str	w5, [x29, 116]
	.loc 1 1023 0
	sub	w5, w5, #1
.LVL728:
	.loc 1 1015 0
	str	w7, [x29, 124]
	.loc 1 1023 0
	csel	w30, w5, w30, ge
.LVL729:
	.loc 1 1025 0
	cmp	w9, w0
	sub	w0, w0, #1
.LVL730:
	.loc 1 1027 0
	lsr	w13, w13, 2
	.loc 1 1025 0
	csel	w0, w0, w9, ge
.LVL731:
	str	w0, [x29, 120]
	.loc 1 1027 0
	add	x13, x10, x13
.LVL732:
	.loc 1 1028 0
	cmp	w21, w0
	bgt	.L620
	mul	w18, w21, w6
	.loc 1 1042 0
	mov	w19, 1
.LBB1596:
.LBB1597:
	.loc 1 991 0
	mov	w16, w19
	lsl	w0, w7, 3
.LVL733:
	str	w0, [x29, 112]
.LVL734:
	.p2align 2
.L624:
.LBE1597:
.LBE1596:
	.loc 1 1029 0
	and	w0, w21, 1
.LVL735:
	tbnz	x21, 0, .L625
	.loc 1 1030 0
	ldr	x5, [x29, 96]
	ldr	w13, [x5, 84]
.LVL736:
	ldr	x5, [x29, 104]
.LVL737:
	mul	w13, w21, w13
	lsr	w13, w13, 2
	add	x13, x5, x13
.LVL738:
.L625:
	.loc 1 1033 0
	mul	w17, w21, w17
	.loc 1 1036 0
	ldr	w5, [x29, 124]
	cmp	w5, w30
	.loc 1 1033 0
	sxtw	x17, w17
	.loc 1 1036 0
	bgt	.L638
	cmp	w0, 0
.LBB1601:
.LBB1598:
	.loc 1 990 0
	ldr	w11, [x29, 112]
	mov	w0, 2
	ldr	w9, [x29, 124]
.LVL739:
	csel	w20, w0, wzr, ne
	.loc 1 930 0
	add	w28, w20, 4
	.loc 1 940 0
	add	w27, w20, 8
	.loc 1 950 0
	add	w26, w20, 12
	.loc 1 960 0
	add	w25, w20, 16
	.loc 1 970 0
	add	w24, w20, 20
	.loc 1 980 0
	add	w23, w20, 24
	.loc 1 990 0
	add	w22, w20, 28
.LVL740:
	.p2align 2
.L637:
.LBE1598:
.LBE1601:
	.loc 1 1037 0
	sxtw	x8, w9
.LVL741:
	lsl	x0, x8, 3
	add	x0, x0, x18, sxtw 3
	ldr	x7, [x1, x0]
	.loc 1 1038 0
	ldr	x6, [x2, x0]
.LVL742:
	.loc 1 1041 0
	cmp	x7, x6
	beq	.L628
	.loc 1 1039 0
	add	x12, x17, x11, sxtw
	.loc 1 1042 0
	str	w19, [x4, 60]
.LBB1602:
.LBB1599:
	.loc 1 914 0
	eor	x5, x7, x6
.LVL743:
.LBE1599:
.LBE1602:
	.loc 1 1039 0
	add	x0, x3, x12
.LVL744:
.LBB1603:
.LBB1600:
	.loc 1 916 0
	and	x14, x5, 255
	.loc 1 913 0
	mov	w10, 0
.LVL745:
	.loc 1 916 0
	ldrb	w15, [x3, x12]
	cmp	w15, 0
	ccmp	x14, 0, 4, eq
	beq	.L629
	.loc 1 919 0
	lsl	x10, x6, 2
.LVL746:
	ldr	x14, [x4, 128]
	and	x10, x10, 992
	ubfx	x15, x7, 3, 5
	orr	x10, x10, x15
	ldrb	w10, [x14, x10]
	.loc 1 921 0
	strb	w19, [x3, x12]
	.loc 1 920 0
	lsl	w10, w10, w20
.LVL747:
.L629:
	.loc 1 926 0
	ldrb	w12, [x0, 1]
	cmp	w12, 0
	and	x12, x5, 65280
	ccmp	x12, 0, 4, eq
	beq	.L630
	.loc 1 929 0
	lsr	x12, x6, 6
	ldr	x14, [x4, 128]
	and	x12, x12, 992
	ubfx	x15, x7, 11, 5
	orr	x12, x12, x15
	ldrb	w12, [x14, x12]
	.loc 1 931 0
	strb	w16, [x0, 1]
	.loc 1 930 0
	lsl	w12, w12, w28
	orr	w10, w10, w12
.L630:
	.loc 1 936 0
	ldrb	w12, [x0, 2]
	cmp	w12, 0
	and	x12, x5, 16711680
	ccmp	x12, 0, 4, eq
	beq	.L631
	.loc 1 939 0
	lsr	x12, x6, 14
	ldr	x14, [x4, 128]
	and	x12, x12, 992
	ubfx	x15, x7, 19, 5
	orr	x12, x12, x15
	ldrb	w12, [x14, x12]
	.loc 1 941 0
	strb	w16, [x0, 2]
	.loc 1 940 0
	lsl	w12, w12, w27
	orr	w10, w10, w12
.L631:
	.loc 1 946 0
	ldrb	w12, [x0, 3]
	tst	x5, 4278190080
	ccmp	w12, 0, 0, ne
	bne	.L632
	.loc 1 949 0
	lsr	x12, x6, 22
	ldr	x14, [x4, 128]
	and	x12, x12, 992
	lsr	w15, w7, 27
	orr	x12, x12, x15
	ldrb	w12, [x14, x12]
	.loc 1 951 0
	strb	w16, [x0, 3]
	.loc 1 950 0
	lsl	w12, w12, w26
	orr	w10, w10, w12
.L632:
	.loc 1 956 0
	ldrb	w12, [x0, 4]
	cmp	w12, 0
	and	x12, x5, 1095216660480
	ccmp	x12, 0, 4, eq
	beq	.L633
	.loc 1 959 0
	lsr	x12, x6, 30
	ldr	x14, [x4, 128]
	and	x12, x12, 992
	ubfx	x15, x7, 35, 5
	orr	x12, x12, x15
	ldrb	w12, [x14, x12]
	.loc 1 961 0
	strb	w16, [x0, 4]
	.loc 1 960 0
	lsl	w12, w12, w25
	orr	w10, w10, w12
.L633:
	.loc 1 966 0
	ldrb	w12, [x0, 5]
	cmp	w12, 0
	and	x12, x5, 280375465082880
	ccmp	x12, 0, 4, eq
	beq	.L634
	.loc 1 969 0
	lsr	x12, x6, 38
	ldr	x14, [x4, 128]
	and	x12, x12, 992
	ubfx	x15, x7, 43, 5
	orr	x12, x12, x15
	ldrb	w12, [x14, x12]
	.loc 1 971 0
	strb	w16, [x0, 5]
	.loc 1 970 0
	lsl	w12, w12, w24
	orr	w10, w10, w12
.L634:
	.loc 1 976 0
	ldrb	w12, [x0, 6]
	tst	x5, 71776119061217280
	ccmp	w12, 0, 0, ne
	bne	.L635
	.loc 1 979 0
	lsr	x12, x6, 46
	ldr	x14, [x4, 128]
	and	x12, x12, 992
	ubfx	x15, x7, 51, 5
	orr	x12, x12, x15
	ldrb	w12, [x14, x12]
	.loc 1 981 0
	strb	w16, [x0, 6]
	.loc 1 980 0
	lsl	w12, w12, w23
	orr	w10, w10, w12
.L635:
	.loc 1 986 0
	tst	x5, -72057594037927936
	ldrb	w5, [x0, 7]
.LVL748:
	ccmp	w5, 0, 0, ne
	bne	.L636
	.loc 1 989 0
	ldr	x5, [x4, 128]
	lsr	x6, x6, 54
.LVL749:
	and	x6, x6, 992
	add	x7, x5, x7, lsr 59
.LVL750:
	ldrb	w5, [x7, x6]
	.loc 1 991 0
	strb	w16, [x0, 7]
	.loc 1 990 0
	lsl	w0, w5, w22
.LVL751:
	orr	w10, w10, w0
.LVL752:
.L636:
.LBE1600:
.LBE1603:
	.loc 1 1043 0
	ldr	w0, [x13, x8, lsl 2]
.LVL753:
	orr	w10, w0, w10
.LVL754:
	str	w10, [x13, x8, lsl 2]
.LVL755:
.L628:
	.loc 1 1036 0
	add	w9, w9, 1
	add	w11, w11, 8
	cmp	w9, w30
	ble	.L637
.LVL756:
.L638:
	ldr	w0, [x29, 116]
	.loc 1 1028 0
	add	w21, w21, 1
	add	w18, w18, w0
	ldr	w0, [x29, 120]
.LVL757:
	cmp	w21, w0
	bgt	.L620
	ldr	w17, [x4, 96]
	b	.L624
.L620:
	.loc 1 1047 0
	ldp	x19, x20, [sp, 16]
	ldp	x21, x22, [sp, 32]
.LVL758:
	ldp	x23, x24, [sp, 48]
	ldp	x25, x26, [sp, 64]
	ldp	x27, x28, [sp, 80]
	ldp	x29, x30, [sp], 128
	.cfi_restore 30
	.cfi_restore 29
	.cfi_restore 27
	.cfi_restore 28
	.cfi_restore 25
	.cfi_restore 26
	.cfi_restore 23
	.cfi_restore 24
	.cfi_restore 21
	.cfi_restore 22
	.cfi_restore 19
	.cfi_restore 20
	.cfi_def_cfa 31, 0
.LVL759:
	ret
	.cfi_endproc
.LFE2876:
	.size	get_overlay_image_area2.isra.0, .-get_overlay_image_area2.isra.0
	.align	2
	.p2align 3,,7
	.type	get_one_auto_image2.isra.1, %function
get_one_auto_image2.isra.1:
.LFB2877:
	.loc 1 1219 0
	.cfi_startproc
.LVL760:
	.loc 1 1227 0
	ldr	x6, [x1]
.LVL761:
	.loc 1 1219 0
	and	w3, w3, 255
	.loc 1 1230 0
	mov	w7, 0
	.loc 1 1231 0
	eor	x8, x6, x0
.LVL762:
	.loc 1 1232 0
	and	x9, x8, 255
	cbz	x9, .L665
	.loc 1 1235 0
	lsl	x7, x6, 2
	.loc 1 1233 0
	ldrb	w9, [x2]
	.loc 1 1235 0
	ubfx	x10, x0, 3, 5
	and	x7, x7, 992
	orr	x7, x7, x10
	ldr	x10, [x4]
	add	x7, x10, x7
	.loc 1 1234 0
	lsl	w10, w9, 10
	.loc 1 1237 0
	add	w9, w9, 1
	and	w9, w9, 255
	.loc 1 1235 0
	ldrb	w7, [x7, w10, sxtw]
	.loc 1 1238 0
	cmp	w9, w3
	.loc 1 1236 0
	lsl	w7, w7, w5
	.loc 1 1238 0
	beq	.L704
.L666:
	.loc 1 1242 0
	strb	w9, [x2]
.L665:
	.loc 1 1245 0
	tst	x8, 65280
	beq	.L667
	.loc 1 1248 0
	lsr	x10, x6, 6
	.loc 1 1246 0
	ldrb	w9, [x2, 1]
	.loc 1 1248 0
	ubfx	x11, x0, 11, 5
	and	x10, x10, 992
	orr	x10, x10, x11
	ldr	x11, [x4]
	add	x10, x11, x10
	.loc 1 1247 0
	lsl	w11, w9, 10
	.loc 1 1250 0
	add	w9, w9, 1
	and	w9, w9, 255
	.loc 1 1248 0
	ldrb	w10, [x10, w11, sxtw]
	.loc 1 1249 0
	add	w11, w5, 4
	.loc 1 1251 0
	cmp	w9, w3
	.loc 1 1249 0
	lsl	w10, w10, w11
	orr	w7, w7, w10
	.loc 1 1251 0
	beq	.L705
.L668:
	.loc 1 1255 0
	strb	w9, [x2, 1]
.L667:
	.loc 1 1258 0
	tst	x8, 16711680
	beq	.L669
	.loc 1 1261 0
	lsr	x10, x6, 14
	.loc 1 1259 0
	ldrb	w9, [x2, 2]
	.loc 1 1261 0
	ubfx	x11, x0, 19, 5
	and	x10, x10, 992
	orr	x10, x10, x11
	ldr	x11, [x4]
	add	x10, x11, x10
	.loc 1 1260 0
	lsl	w11, w9, 10
	.loc 1 1263 0
	add	w9, w9, 1
	and	w9, w9, 255
	.loc 1 1261 0
	ldrb	w10, [x10, w11, sxtw]
	.loc 1 1262 0
	add	w11, w5, 8
	.loc 1 1264 0
	cmp	w9, w3
	.loc 1 1262 0
	lsl	w10, w10, w11
	orr	w7, w7, w10
	.loc 1 1264 0
	beq	.L706
.L670:
	.loc 1 1268 0
	strb	w9, [x2, 2]
.L669:
	.loc 1 1271 0
	tst	x8, 4278190080
	beq	.L671
	.loc 1 1274 0
	lsr	x10, x6, 22
	.loc 1 1272 0
	ldrb	w9, [x2, 3]
	.loc 1 1274 0
	lsr	w11, w0, 27
	and	x10, x10, 992
	orr	x10, x10, x11
	ldr	x11, [x4]
	add	x10, x11, x10
	.loc 1 1273 0
	lsl	w11, w9, 10
	.loc 1 1276 0
	add	w9, w9, 1
	and	w9, w9, 255
	.loc 1 1274 0
	ldrb	w10, [x10, w11, sxtw]
	.loc 1 1275 0
	add	w11, w5, 12
	.loc 1 1277 0
	cmp	w9, w3
	.loc 1 1275 0
	lsl	w10, w10, w11
	orr	w7, w7, w10
	.loc 1 1277 0
	beq	.L707
.L672:
	.loc 1 1281 0
	strb	w9, [x2, 3]
.L671:
	.loc 1 1284 0
	tst	x8, 1095216660480
	beq	.L673
	.loc 1 1287 0
	lsr	x10, x6, 30
	.loc 1 1285 0
	ldrb	w9, [x2, 4]
	.loc 1 1287 0
	ubfx	x11, x0, 35, 5
	and	x10, x10, 992
	orr	x10, x10, x11
	ldr	x11, [x4]
	add	x10, x11, x10
	.loc 1 1286 0
	lsl	w11, w9, 10
	.loc 1 1289 0
	add	w9, w9, 1
	and	w9, w9, 255
	.loc 1 1287 0
	ldrb	w10, [x10, w11, sxtw]
	.loc 1 1288 0
	add	w11, w5, 16
	.loc 1 1290 0
	cmp	w9, w3
	.loc 1 1288 0
	lsl	w10, w10, w11
	orr	w7, w7, w10
	.loc 1 1290 0
	beq	.L708
.L674:
	.loc 1 1294 0
	strb	w9, [x2, 4]
.L673:
	.loc 1 1297 0
	tst	x8, 280375465082880
	beq	.L675
	.loc 1 1300 0
	lsr	x10, x6, 38
	.loc 1 1298 0
	ldrb	w9, [x2, 5]
	.loc 1 1300 0
	ubfx	x11, x0, 43, 5
	and	x10, x10, 992
	orr	x10, x10, x11
	ldr	x11, [x4]
	add	x10, x11, x10
	.loc 1 1299 0
	lsl	w11, w9, 10
	.loc 1 1302 0
	add	w9, w9, 1
	and	w9, w9, 255
	.loc 1 1300 0
	ldrb	w10, [x10, w11, sxtw]
	.loc 1 1301 0
	add	w11, w5, 20
	.loc 1 1303 0
	cmp	w9, w3
	.loc 1 1301 0
	lsl	w10, w10, w11
	orr	w7, w7, w10
	.loc 1 1303 0
	beq	.L709
.L676:
	.loc 1 1307 0
	strb	w9, [x2, 5]
.L675:
	.loc 1 1310 0
	tst	x8, 71776119061217280
	beq	.L677
	.loc 1 1313 0
	lsr	x10, x6, 46
	.loc 1 1311 0
	ldrb	w9, [x2, 6]
	.loc 1 1313 0
	ubfx	x11, x0, 51, 5
	and	x10, x10, 992
	orr	x10, x10, x11
	ldr	x11, [x4]
	add	x10, x11, x10
	.loc 1 1312 0
	lsl	w11, w9, 10
	.loc 1 1315 0
	add	w9, w9, 1
	and	w9, w9, 255
	.loc 1 1313 0
	ldrb	w10, [x10, w11, sxtw]
	.loc 1 1314 0
	add	w11, w5, 24
	.loc 1 1316 0
	cmp	w9, w3
	.loc 1 1314 0
	lsl	w10, w10, w11
	orr	w7, w7, w10
	.loc 1 1316 0
	beq	.L710
.L678:
	.loc 1 1320 0
	strb	w9, [x2, 6]
.L677:
	.loc 1 1323 0
	tst	x8, -72057594037927936
	beq	.L679
	.loc 1 1324 0
	ldrb	w8, [x2, 7]
.LVL763:
	.loc 1 1327 0
	add	w5, w5, 28
.LVL764:
	.loc 1 1326 0
	ldr	x9, [x4]
	.loc 1 1325 0
	ubfiz	x4, x8, 10, 8
	.loc 1 1326 0
	add	x9, x9, x4
	.loc 1 1328 0
	add	w4, w8, 1
	and	w4, w4, 255
	.loc 1 1326 0
	add	x8, x9, x0, lsr 59
	.loc 1 1329 0
	cmp	w4, w3
	.loc 1 1326 0
	lsr	x3, x6, 54
	and	x3, x3, 992
	ldrb	w3, [x8, x3]
	.loc 1 1327 0
	lsl	w5, w3, w5
	orr	w7, w7, w5
	.loc 1 1329 0
	beq	.L711
.L680:
	.loc 1 1333 0
	strb	w4, [x2, 7]
.LVL765:
.L679:
	.loc 1 1338 0
	mov	w0, w7
	.loc 1 1335 0
	str	x6, [x1]
	.loc 1 1338 0
	ret
.LVL766:
	.p2align 3
.L711:
	.loc 1 1331 0
	and	x6, x6, 72057594037927935
.LVL767:
	and	x0, x0, -72057594037927936
	orr	x6, x0, x6
.LVL768:
	.loc 1 1330 0
	mov	w4, 0
	b	.L680
.LVL769:
	.p2align 3
.L704:
	.loc 1 1240 0
	bfi	x6, x0, 0, 8
	.loc 1 1239 0
	mov	w9, 0
	b	.L666
	.p2align 3
.L705:
	.loc 1 1253 0
	and	x9, x0, 65280
	and	x6, x6, -65281
.LVL770:
	orr	x6, x9, x6
.LVL771:
	.loc 1 1252 0
	mov	w9, 0
	b	.L668
	.p2align 3
.L706:
	.loc 1 1266 0
	and	x9, x0, 16711680
	and	x6, x6, -16711681
.LVL772:
	orr	x6, x9, x6
.LVL773:
	.loc 1 1265 0
	mov	w9, 0
	b	.L670
	.p2align 3
.L707:
	.loc 1 1279 0
	and	x9, x0, 4278190080
	and	x6, x6, -4278190081
.LVL774:
	orr	x6, x9, x6
.LVL775:
	.loc 1 1278 0
	mov	w9, 0
	b	.L672
	.p2align 3
.L708:
	.loc 1 1292 0
	and	x9, x0, 1095216660480
	and	x6, x6, -1095216660481
.LVL776:
	orr	x6, x9, x6
.LVL777:
	.loc 1 1291 0
	mov	w9, 0
	b	.L674
	.p2align 3
.L709:
	.loc 1 1305 0
	and	x9, x0, 280375465082880
	and	x6, x6, -280375465082881
.LVL778:
	orr	x6, x9, x6
.LVL779:
	.loc 1 1304 0
	mov	w9, 0
	b	.L676
	.p2align 3
.L710:
	.loc 1 1318 0
	and	x9, x0, 71776119061217280
	and	x6, x6, -71776119061217281
.LVL780:
	orr	x6, x9, x6
.LVL781:
	.loc 1 1317 0
	mov	w9, 0
	b	.L678
	.cfi_endproc
.LFE2877:
	.size	get_one_auto_image2.isra.1, .-get_one_auto_image2.isra.1
	.align	2
	.p2align 3,,7
	.type	get_auto_image2, %function
get_auto_image2:
.LFB2827:
	.loc 1 1341 0
	.cfi_startproc
.LVL782:
	stp	x29, x30, [sp, -128]!
	.cfi_def_cfa_offset 128
	.cfi_offset 29, -128
	.cfi_offset 30, -120
	.loc 1 1342 0
	adrp	x6, .LANCHOR0
	.loc 1 1355 0
	cmp	w5, 2
	.loc 1 1341 0
	add	x29, sp, 0
	.cfi_def_cfa_register 29
	stp	x23, x24, [sp, 48]
	.cfi_offset 23, -80
	.cfi_offset 24, -72
	.loc 1 1342 0
	ldr	x24, [x6, #:lo12:.LANCHOR0]
	.loc 1 1341 0
	stp	x19, x20, [sp, 16]
	.cfi_offset 19, -112
	.cfi_offset 20, -104
	mov	x20, x1
	.loc 1 1352 0
	add	x24, x24, 24
	.loc 1 1341 0
	stp	x21, x22, [sp, 32]
	stp	x25, x26, [sp, 64]
	mov	x19, x4
	stp	x27, x28, [sp, 80]
	.cfi_offset 21, -96
	.cfi_offset 22, -88
	.cfi_offset 25, -64
	.cfi_offset 26, -56
	.cfi_offset 27, -48
	.cfi_offset 28, -40
	.loc 1 1341 0
	mov	x21, x2
	str	x0, [x29, 112]
	.loc 1 1350 0
	add	x0, x4, 60
.LVL783:
	.loc 1 1353 0
	ldp	w1, w25, [x24, 84]
.LVL784:
	.loc 1 1350 0
	str	x0, [x29, 104]
	.loc 1 1341 0
	mov	x22, x3
	.loc 1 1352 0
	lsr	w0, w1, 3
.LVL785:
	str	w0, [x29, 124]
	.loc 1 1355 0
	beq	.L731
	.loc 1 1358 0
	cmp	w5, 3
	mov	x0, 0
	.loc 1 1365 0
	mov	w23, 0
.LVL786:
	.loc 1 1358 0
	beq	.L732
.LVL787:
.L714:
	.loc 1 1368 0
	ldr	x2, [x29, 112]
.LVL788:
	add	x0, x2, x0
	sub	w2, w25, w23
.LVL789:
	mul	w2, w2, w1
	mov	w1, 0
	lsr	w2, w2, 2
	bl	memset
.LVL790:
	.loc 1 1369 0
	cmp	w23, w25
	bge	.L723
	ldr	w0, [x29, 124]
	.loc 1 1376 0
	add	x13, x19, 128
	.loc 1 1369 0
	mov	w9, 0
.LVL791:
	sub	w14, w0, #1
	add	x14, x14, 1
	lsl	x12, x14, 2
	lsl	x14, x14, 3
.LVL792:
	.p2align 2
.L721:
	.loc 1 1370 0
	ldr	w7, [x24, 84]
	ldr	x0, [x29, 112]
.LVL793:
	mul	w7, w23, w7
	lsr	w7, w7, 2
	add	x26, x0, x7
	.loc 1 1371 0
	ldr	w0, [x29, 124]
.LVL794:
	cbz	w0, .L716
	mov	x28, x22
.LVL795:
	mov	x15, x21
.LVL796:
	mov	x27, x20
.LVL797:
	mov	x18, 0
	.p2align 2
.L718:
	.loc 1 1372 0
	ldr	x3, [x27]
	.loc 1 1376 0
	mov	x2, x28
	.loc 1 1374 0
	ldr	x10, [x15]
	.loc 1 1376 0
	mov	x1, x15
	mov	w5, 0
	mov	x4, x13
	mov	x0, x3
	.loc 1 1374 0
	cmp	x3, x10
	beq	.L717
	.loc 1 1376 0
	ldrb	w3, [x19, 56]
	bl	get_one_auto_image2.isra.1
.LVL798:
	str	w0, [x26, x18]
	.loc 1 1375 0
	mov	w9, 1
.LVL799:
.L717:
	add	x18, x18, 4
	.loc 1 1378 0 discriminator 2
	add	x15, x15, 8
	.loc 1 1379 0 discriminator 2
	add	x27, x27, 8
	.loc 1 1380 0 discriminator 2
	add	x28, x28, 8
	.loc 1 1371 0 discriminator 2
	cmp	x18, x12
	bne	.L718
.LVL800:
	add	x21, x21, x14
.LVL801:
	add	x20, x20, x14
.LVL802:
	add	x22, x22, x14
	.loc 1 1371 0 is_stmt 0
	mov	x18, x21
	mov	x27, x22
	mov	x28, x20
	mov	x15, 0
	.p2align 2
.L720:
	.loc 1 1383 0 is_stmt 1
	ldr	x3, [x28]
	.loc 1 1387 0
	mov	x1, x18
	.loc 1 1385 0
	ldr	x10, [x18]
	.loc 1 1387 0
	mov	x2, x27
	mov	w5, 2
	mov	x4, x13
	.loc 1 1389 0
	add	x18, x18, 8
	.loc 1 1390 0
	add	x28, x28, 8
	.loc 1 1387 0
	mov	x0, x3
	.loc 1 1385 0
	cmp	x3, x10
	beq	.L719
	.loc 1 1387 0
	ldrb	w3, [x19, 56]
	bl	get_one_auto_image2.isra.1
.LVL803:
	ldr	w1, [x26, x15]
	.loc 1 1386 0
	mov	w9, 1
.LVL804:
	.loc 1 1387 0
	orr	w0, w1, w0
	str	w0, [x26, x15]
.L719:
	add	x15, x15, 4
	.loc 1 1391 0 discriminator 2
	add	x27, x27, 8
	.loc 1 1382 0 discriminator 2
	cmp	x15, x12
	bne	.L720
	add	x21, x21, x14
	add	x20, x20, x14
	add	x22, x22, x14
.L716:
	.loc 1 1369 0
	add	w23, w23, 2
	cmp	w25, w23
	bgt	.L721
.L715:
	.loc 1 1394 0
	ldr	x0, [x29, 104]
.LVL805:
	str	w9, [x0]
	.loc 1 1395 0
	ldp	x19, x20, [sp, 16]
.LVL806:
	ldp	x21, x22, [sp, 32]
.LVL807:
	ldp	x23, x24, [sp, 48]
.LVL808:
	ldp	x25, x26, [sp, 64]
.LVL809:
	ldp	x27, x28, [sp, 80]
	ldp	x29, x30, [sp], 128
	.cfi_remember_state
	.cfi_restore 30
	.cfi_restore 29
	.cfi_restore 27
	.cfi_restore 28
	.cfi_restore 25
	.cfi_restore 26
	.cfi_restore 23
	.cfi_restore 24
	.cfi_restore 21
	.cfi_restore 22
	.cfi_restore 19
	.cfi_restore 20
	.cfi_def_cfa 31, 0
	ret
.LVL810:
.L731:
	.cfi_restore_state
	.loc 1 1357 0
	add	w25, w25, w25, lsr 31
.LVL811:
	mov	x0, 0
	asr	w25, w25, 1
.LVL812:
	.loc 1 1356 0
	mov	w23, 0
.LVL813:
	b	.L714
.LVL814:
.L732:
	.loc 1 1363 0
	add	x0, x4, 64
.LVL815:
	.loc 1 1359 0
	add	w23, w25, w25, lsr 31
.LVL816:
	asr	w23, w23, 1
.LVL817:
	.loc 1 1363 0
	str	x0, [x29, 104]
	.loc 1 1360 0
	lsr	w0, w1, 3
.LVL818:
	mul	w0, w0, w23
	sbfiz	x0, x0, 3, 32
	add	x20, x20, x0
	.loc 1 1361 0
	add	x21, x2, x0
	.loc 1 1362 0
	mul	w0, w23, w1
	add	x22, x3, x0, uxtw
	lsr	w0, w0, 2
	b	.L714
.LVL819:
.L723:
	.loc 1 1349 0
	mov	w9, 0
.LVL820:
	b	.L715
	.cfi_endproc
.LFE2827:
	.size	get_auto_image2, .-get_auto_image2
	.align	2
	.p2align 3,,7
	.type	direct_mode_data_change.isra.2, %function
direct_mode_data_change.isra.2:
.LFB2878:
	.loc 1 1397 0
	.cfi_startproc
.LVL821:
	.loc 1 1399 0
	adrp	x7, .LANCHOR0
	.loc 1 1397 0
	and	w3, w3, 255
	.loc 1 1404 0
	sub	w4, w3, w4
.LVL822:
	.loc 1 1411 0
	cmp	w6, 2
	.loc 1 1399 0
	ldr	x3, [x7, #:lo12:.LANCHOR0]
	.loc 1 1405 0
	lsl	w7, w4, 10
	add	x5, x5, x7, sxtw
.LVL823:
	.loc 1 1408 0
	add	x4, x3, 24
.LVL824:
	.loc 1 1409 0
	ldp	w7, w3, [x4, 84]
	.loc 1 1408 0
	lsr	w11, w7, 3
	.loc 1 1411 0
	beq	.L753
	.loc 1 1414 0
	cmp	w6, 3
	mov	w14, w3
.LVL825:
	mov	w6, 0
.LVL826:
	.loc 1 1419 0
	mov	w12, 0
.LVL827:
	.loc 1 1414 0
	beq	.L754
.L735:
	.loc 1 1422 0
	ldr	w4, [x4, 156]
	cbz	w4, .L736
	.loc 1 1423 0
	sub	w3, w3, #1
	.loc 1 1424 0
	neg	w15, w7, lsr 2
.LVL828:
	.loc 1 1423 0
	sub	w3, w3, w6
	mul	w3, w3, w7
	lsr	w3, w3, 2
	add	x10, x0, x3
.LVL829:
.L739:
	.loc 1 1430 0
	cmp	w12, w14
	bge	.L747
	sub	w13, w11, #1
	sxtw	x15, w15
.LVL830:
	add	x13, x13, 1
	lsl	x13, x13, 3
.L748:
	.loc 1 1431 0
	mov	x6, 0
	cbz	w11, .L755
	.loc 1 1397 0
	stp	x29, x30, [sp, -32]!
	.cfi_def_cfa_offset 32
	.cfi_offset 29, -32
	.cfi_offset 30, -24
	add	x29, sp, 0
	.cfi_def_cfa_register 29
	str	x19, [sp, 16]
	.cfi_offset 19, -16
	.p2align 2
.L744:
	.loc 1 1433 0
	ldr	x0, [x2, x6, lsl 3]
.LVL831:
	.loc 1 1432 0
	ldr	x3, [x1, x6, lsl 3]
.LVL832:
.LBB1604:
.LBB1605:
	.loc 1 270 0
	lsr	x17, x0, 30
	.loc 1 268 0
	lsr	x4, x0, 14
	.loc 1 270 0
	ubfx	x8, x3, 35, 5
	.loc 1 268 0
	ubfx	x7, x3, 19, 5
	.loc 1 269 0
	lsr	x30, x0, 22
	.loc 1 267 0
	lsr	x16, x0, 6
	.loc 1 272 0
	lsr	x9, x0, 46
	.loc 1 270 0
	and	x17, x17, 992
	.loc 1 268 0
	and	x4, x4, 992
	.loc 1 269 0
	lsr	w19, w3, 27
	.loc 1 270 0
	orr	x17, x17, x8
	.loc 1 267 0
	ubfx	x18, x3, 11, 5
	.loc 1 268 0
	orr	x4, x4, x7
	.loc 1 271 0
	lsr	x8, x0, 38
	.loc 1 272 0
	ubfx	x7, x3, 51, 5
	.loc 1 269 0
	and	x30, x30, 992
	.loc 1 267 0
	and	x16, x16, 992
	.loc 1 272 0
	and	x9, x9, 992
	.loc 1 269 0
	orr	x30, x30, x19
	.loc 1 267 0
	orr	x16, x16, x18
	.loc 1 272 0
	orr	x9, x9, x7
	.loc 1 271 0
	ubfx	x18, x3, 43, 5
	.loc 1 266 0
	lsl	x7, x0, 2
	.loc 1 271 0
	and	x8, x8, 992
	orr	x8, x8, x18
	.loc 1 266 0
	ubfx	x19, x3, 3, 5
	and	x7, x7, 992
	.loc 1 273 0
	lsr	x0, x0, 54
.LVL833:
	.loc 1 270 0
	ldrb	w18, [x5, x17]
	.loc 1 266 0
	orr	x7, x7, x19
	.loc 1 268 0
	ldrb	w17, [x5, x4]
	.loc 1 273 0
	and	x0, x0, 992
	add	x3, x5, x3, lsr 59
.LVL834:
	.loc 1 269 0
	ldrb	w4, [x5, x30]
	.loc 1 267 0
	ldrb	w16, [x5, x16]
	.loc 1 272 0
	ldrb	w9, [x5, x9]
	.loc 1 271 0
	ldrb	w8, [x5, x8]
	.loc 1 266 0
	ldrb	w30, [x5, x7]
	.loc 1 268 0
	lsl	w7, w17, 4
	.loc 1 273 0
	ldrb	w3, [x3, x0]
	.loc 1 270 0
	lsl	w0, w18, 8
	.loc 1 273 0
	orr	w0, w0, w4, lsl 6
	orr	w7, w7, w16, lsl 2
	.loc 1 272 0
	lsl	w4, w9, 12
	.loc 1 273 0
	orr	w0, w0, w7
	orr	w4, w4, w8, lsl 10
	orr	w3, w30, w3, lsl 14
	orr	w0, w0, w4
	orr	w0, w0, w3
.LBE1605:
.LBE1604:
	.loc 1 1434 0
	strh	w0, [x10, x6, lsl 1]
	add	x6, x6, 1
	.loc 1 1431 0
	cmp	w11, w6
	bgt	.L744
	.loc 1 1430 0
	add	w12, w12, 1
	add	x1, x1, x13
	add	x2, x2, x13
	add	x10, x10, x15
	cmp	w12, w14
	beq	.L733
.L756:
	.loc 1 1431 0
	mov	x6, 0
	cbnz	w11, .L744
	.loc 1 1430 0
	add	w12, w12, 1
	add	x10, x10, x15
	cmp	w12, w14
	bne	.L756
.L733:
	.loc 1 1437 0
	ldr	x19, [sp, 16]
	ldp	x29, x30, [sp], 32
	.cfi_restore 30
	.cfi_restore 29
	.cfi_restore 19
	.cfi_def_cfa 31, 0
	ret
.L755:
	.loc 1 1430 0
	add	w12, w12, 1
	add	x10, x10, x15
	cmp	w12, w14
	bne	.L748
.LVL835:
.L747:
	ret
.LVL836:
.L736:
	.loc 1 1426 0
	mul	w3, w7, w6
	.loc 1 1427 0
	lsr	w15, w7, 2
.LVL837:
	.loc 1 1426 0
	lsr	w3, w3, 2
	add	x10, x0, x3
.LVL838:
	b	.L739
.LVL839:
.L753:
	.loc 1 1413 0
	add	w14, w3, w3, lsr 31
	mov	w6, 0
.LVL840:
	asr	w14, w14, 1
.LVL841:
	.loc 1 1412 0
	mov	w12, 0
.LVL842:
	b	.L735
.L754:
	.loc 1 1415 0
	add	w12, w3, w3, lsr 31
.LVL843:
	asr	w12, w12, 1
.LVL844:
	mov	w6, w12
	.loc 1 1416 0
	mul	w8, w11, w12
	sbfiz	x8, x8, 3, 32
	add	x1, x1, x8
	.loc 1 1417 0
	add	x2, x2, x8
	b	.L735
	.cfi_endproc
.LFE2878:
	.size	direct_mode_data_change.isra.2, .-direct_mode_data_change.isra.2
	.align	2
	.p2align 3,,7
	.type	direct_mode_data_change2.isra.3, %function
direct_mode_data_change2.isra.3:
.LFB2879:
	.loc 1 1484 0
	.cfi_startproc
.LVL845:
	.loc 1 1486 0
	adrp	x7, .LANCHOR0
	.loc 1 1484 0
	and	w3, w3, 255
	.loc 1 1491 0
	sub	w3, w3, w4
.LVL846:
	.loc 1 1499 0
	cmp	w6, 2
	.loc 1 1486 0
	ldr	x4, [x7, #:lo12:.LANCHOR0]
	.loc 1 1492 0
	lsl	w3, w3, 10
.LVL847:
	add	x5, x5, x3, sxtw
.LVL848:
	.loc 1 1497 0
	ldp	w13, w14, [x4, 108]
	.loc 1 1496 0
	lsr	w9, w13, 3
	.loc 1 1499 0
	beq	.L781
	.loc 1 1507 0
	mov	w11, 0
.LVL849:
	.loc 1 1502 0
	cmp	w6, 3
	beq	.L782
.LVL850:
.L759:
	.loc 1 1510 0
	lsr	w13, w13, 2
.LVL851:
	.loc 1 1511 0
	cmp	w14, w11
	ble	.L774
.L785:
	sub	w10, w9, #1
	mul	w12, w13, w11
	add	x10, x10, 1
	lsl	w13, w13, 1
.LVL852:
	lsl	x10, x10, 3
.LVL853:
.L775:
	.loc 1 1512 0
	add	x8, x0, x12, sxtw
	.loc 1 1513 0
	cbz	w9, .L783
	.loc 1 1484 0
	stp	x29, x30, [sp, -48]!
	.cfi_def_cfa_offset 48
	.cfi_offset 29, -48
	.cfi_offset 30, -40
	add	x29, sp, 0
	.cfi_def_cfa_register 29
	stp	x19, x20, [sp, 16]
	stp	x21, x22, [sp, 32]
	.cfi_offset 19, -32
	.cfi_offset 20, -24
	.cfi_offset 21, -16
	.cfi_offset 22, -8
	.p2align 2
.L776:
	.loc 1 1513 0
	mov	x7, 0
	.p2align 2
.L762:
	.loc 1 1515 0
	ldr	x3, [x2, x7, lsl 3]
	.loc 1 1514 0
	ldr	x4, [x1, x7, lsl 3]
.LBB1606:
.LBB1607:
	.loc 1 282 0
	lsr	x20, x3, 30
	.loc 1 280 0
	lsr	x6, x3, 14
.LVL854:
	.loc 1 282 0
	ubfx	x16, x4, 35, 5
	.loc 1 280 0
	ubfx	x15, x4, 19, 5
	.loc 1 281 0
	lsr	x19, x3, 22
	.loc 1 279 0
	lsr	x18, x3, 6
	.loc 1 284 0
	lsr	x17, x3, 46
	.loc 1 282 0
	and	x20, x20, 992
	.loc 1 280 0
	and	x6, x6, 992
	.loc 1 281 0
	lsr	w22, w4, 27
	.loc 1 282 0
	orr	x20, x20, x16
	.loc 1 279 0
	ubfx	x21, x4, 11, 5
	.loc 1 280 0
	orr	x6, x6, x15
	.loc 1 283 0
	lsr	x16, x3, 38
	.loc 1 284 0
	ubfx	x15, x4, 51, 5
	.loc 1 281 0
	and	x19, x19, 992
	.loc 1 279 0
	and	x18, x18, 992
	.loc 1 284 0
	and	x17, x17, 992
	.loc 1 281 0
	orr	x19, x19, x22
	.loc 1 279 0
	orr	x18, x18, x21
	.loc 1 284 0
	orr	x17, x17, x15
	.loc 1 283 0
	ubfx	x21, x4, 43, 5
	.loc 1 278 0
	lsl	x15, x3, 2
	.loc 1 283 0
	and	x16, x16, 992
	orr	x16, x16, x21
	.loc 1 278 0
	ubfx	x22, x4, 3, 5
	and	x15, x15, 992
	.loc 1 285 0
	lsr	x3, x3, 54
	.loc 1 282 0
	ldrb	w21, [x5, x20]
	.loc 1 278 0
	orr	x15, x15, x22
	.loc 1 280 0
	ldrb	w20, [x5, x6]
	.loc 1 285 0
	and	x3, x3, 992
	add	x4, x5, x4, lsr 59
	.loc 1 281 0
	ldrb	w6, [x5, x19]
	.loc 1 279 0
	ldrb	w18, [x5, x18]
	.loc 1 284 0
	ldrb	w17, [x5, x17]
	.loc 1 283 0
	ldrb	w16, [x5, x16]
	.loc 1 278 0
	ldrb	w19, [x5, x15]
	.loc 1 280 0
	lsl	w15, w20, 8
	.loc 1 285 0
	ldrb	w4, [x4, x3]
	.loc 1 282 0
	lsl	w3, w21, 16
	.loc 1 285 0
	orr	w3, w3, w6, lsl 12
	orr	w15, w15, w18, lsl 4
	.loc 1 284 0
	lsl	w6, w17, 24
	.loc 1 285 0
	orr	w3, w3, w15
	orr	w6, w6, w16, lsl 20
	orr	w4, w19, w4, lsl 28
	orr	w3, w3, w6
	orr	w3, w3, w4
.LBE1607:
.LBE1606:
	.loc 1 1516 0
	str	w3, [x8, x7, lsl 2]
	add	x7, x7, 1
	.loc 1 1513 0
	cmp	w9, w7
	bgt	.L762
	add	x1, x1, x10
	add	x2, x2, x10
	mov	x7, 0
	.p2align 2
.L763:
	.loc 1 1520 0
	ldr	x3, [x2, x7, lsl 3]
	.loc 1 1519 0
	ldr	x4, [x1, x7, lsl 3]
	.loc 1 1521 0
	ldr	w17, [x8, x7, lsl 2]
.LBB1608:
.LBB1609:
	.loc 1 293 0
	lsr	x20, x3, 22
	.loc 1 291 0
	lsr	x30, x3, 6
	.loc 1 293 0
	lsr	w16, w4, 27
	.loc 1 291 0
	ubfx	x15, x4, 11, 5
	.loc 1 292 0
	lsr	x6, x3, 14
	.loc 1 290 0
	lsl	x19, x3, 2
	.loc 1 295 0
	lsr	x18, x3, 38
	.loc 1 293 0
	and	x20, x20, 992
	.loc 1 291 0
	and	x30, x30, 992
	.loc 1 292 0
	ubfx	x22, x4, 19, 5
	.loc 1 293 0
	orr	x20, x20, x16
	.loc 1 290 0
	ubfx	x21, x4, 3, 5
	.loc 1 291 0
	orr	x30, x30, x15
	.loc 1 294 0
	lsr	x16, x3, 30
	.loc 1 295 0
	ubfx	x15, x4, 43, 5
	.loc 1 292 0
	and	x6, x6, 992
	.loc 1 290 0
	and	x19, x19, 992
	.loc 1 295 0
	and	x18, x18, 992
	orr	x18, x18, x15
	.loc 1 292 0
	orr	x6, x6, x22
	.loc 1 290 0
	orr	x19, x19, x21
	.loc 1 296 0
	lsr	x15, x3, 46
	.loc 1 294 0
	ubfx	x21, x4, 35, 5
	and	x16, x16, 992
	.loc 1 297 0
	lsr	x3, x3, 54
	.loc 1 294 0
	orr	x16, x16, x21
	.loc 1 296 0
	ubfx	x22, x4, 51, 5
	.loc 1 297 0
	and	x3, x3, 992
	add	x4, x5, x4, lsr 59
	.loc 1 296 0
	and	x15, x15, 992
	.loc 1 293 0
	ldrb	w21, [x5, x20]
	.loc 1 296 0
	orr	x15, x15, x22
	.loc 1 291 0
	ldrb	w20, [x5, x30]
	.loc 1 292 0
	ldrb	w6, [x5, x6]
	.loc 1 295 0
	ldrb	w30, [x5, x18]
	.loc 1 290 0
	ldrb	w19, [x5, x19]
	.loc 1 294 0
	ldrb	w18, [x5, x16]
	.loc 1 297 0
	ldrb	w16, [x4, x3]
	.loc 1 293 0
	lsl	w4, w21, 14
	.loc 1 296 0
	ldrb	w15, [x5, x15]
	.loc 1 291 0
	lsl	w3, w20, 6
	.loc 1 297 0
	orr	w4, w4, w6, lsl 10
	orr	w3, w3, w19, lsl 2
	.loc 1 295 0
	lsl	w6, w30, 22
	.loc 1 297 0
	orr	w3, w4, w3
	orr	w6, w6, w18, lsl 18
	lsl	w4, w16, 30
	orr	w3, w3, w6
	orr	w4, w4, w15, lsl 26
	orr	w3, w3, w4
.LBE1609:
.LBE1608:
	.loc 1 1521 0
	orr	w3, w17, w3
	str	w3, [x8, x7, lsl 2]
	add	x7, x7, 1
	.loc 1 1518 0
	cmp	w9, w7
	bgt	.L763
	.loc 1 1511 0
	add	w11, w11, 2
	add	x1, x1, x10
	add	x2, x2, x10
	add	w12, w12, w13
	cmp	w11, w14
	bge	.L784
.L764:
	.loc 1 1512 0
	add	x8, x0, x12, sxtw
	.loc 1 1513 0
	cbnz	w9, .L776
	.loc 1 1511 0
	add	w11, w11, 2
	add	w12, w12, w13
	cmp	w11, w14
	blt	.L764
.L784:
	.loc 1 1524 0
	ldp	x19, x20, [sp, 16]
	ldp	x21, x22, [sp, 32]
	ldp	x29, x30, [sp], 48
	.cfi_restore 30
	.cfi_restore 29
	.cfi_restore 21
	.cfi_restore 22
	.cfi_restore 19
	.cfi_restore 20
	.cfi_def_cfa 31, 0
	ret
.LVL855:
.L783:
	.loc 1 1511 0
	add	w11, w11, 2
	add	w12, w12, w13
	cmp	w11, w14
	blt	.L775
	ret
.LVL856:
.L781:
	.loc 1 1501 0
	add	w14, w14, w14, lsr 31
.LVL857:
	.loc 1 1500 0
	mov	w11, 0
.LVL858:
	.loc 1 1501 0
	asr	w14, w14, 1
.LVL859:
	.loc 1 1510 0
	lsr	w13, w13, 2
.LVL860:
	.loc 1 1511 0
	cmp	w14, w11
	bgt	.L785
.L774:
	ret
.LVL861:
.L782:
	.loc 1 1503 0
	add	w11, w14, w14, lsr 31
.LVL862:
	asr	w11, w11, 1
.LVL863:
	.loc 1 1504 0
	mul	w3, w9, w11
	sbfiz	x3, x3, 3, 32
	add	x1, x1, x3
	.loc 1 1505 0
	add	x2, x2, x3
	b	.L759
	.cfi_endproc
.LFE2879:
	.size	direct_mode_data_change2.isra.3, .-direct_mode_data_change2.isra.3
	.align	2
	.p2align 3,,7
	.type	flip.isra.4, %function
flip.isra.4:
.LFB2880:
	.loc 1 1573 0
	.cfi_startproc
.LVL864:
	stp	x29, x30, [sp, -32]!
	.cfi_def_cfa_offset 32
	.cfi_offset 29, -32
	.cfi_offset 30, -24
	.loc 1 1577 0
	sxtw	x2, w1
	.loc 1 1573 0
	add	x29, sp, 0
	.cfi_def_cfa_register 29
	stp	x19, x20, [sp, 16]
	.cfi_offset 19, -16
	.cfi_offset 20, -8
	.loc 1 1573 0
	mov	x20, x0
	.loc 1 1575 0
	ldr	w19, [x0, 72]
	.loc 1 1577 0
	ldr	x0, [x0]
.LVL865:
.LBB1610:
.LBB1611:
.LBB1612:
.LBB1613:
	.file 9 "./include/linux/dma-mapping.h"
	.loc 9 266 0
	cbz	x0, .L789
	ldr	x3, [x0, 648]
	.loc 9 268 0
	adrp	x4, dummy_dma_ops
	add	x4, x4, :lo12:dummy_dma_ops
	cmp	x3, 0
	csel	x3, x4, x3, eq
.L787:
.LBE1613:
.LBE1612:
	.loc 9 434 0
	ldr	x5, [x3, 88]
	sxtw	x19, w19
	cbz	x5, .L788
.LBE1611:
.LBE1610:
	.loc 1 1577 0
	add	x4, x19, x19, lsl 1
.LBB1619:
.LBB1616:
	.loc 9 435 0
	mov	w3, 1
.LBE1616:
.LBE1619:
	.loc 1 1577 0
	add	x4, x20, x4, lsl 3
.LBB1620:
.LBB1617:
	.loc 9 435 0
	ldr	x1, [x4, 32]
	blr	x5
.LVL866:
.L788:
.LBE1617:
.LBE1620:
	.loc 1 1578 0
	ldr	x5, [x20, 8]
.LBB1621:
.LBB1622:
	.file 10 "drivers/gpu/drm/rockchip/ebc-dev/tcon/ebc_tcon.h"
	.loc 10 56 0
	mov	w4, 0
	mov	w3, 0
	mov	w2, 0
	mov	x0, x5
	mov	w1, 0
.LBE1622:
.LBE1621:
	.loc 1 1579 0
	add	x19, x19, x19, lsl 1
.LBB1625:
.LBB1623:
	.loc 10 56 0
	ldr	x5, [x5, 64]
.LBE1623:
.LBE1625:
	.loc 1 1579 0
	add	x19, x20, x19, lsl 3
.LBB1626:
.LBB1624:
	.loc 10 56 0
	blr	x5
.LVL867:
.LBE1624:
.LBE1626:
	.loc 1 1579 0
	ldr	x1, [x20, 8]
.LBB1627:
.LBB1628:
	.loc 10 61 0
	mov	w2, 0
	mov	x0, x1
	ldr	x3, [x1, 72]
	ldr	w1, [x19, 32]
	blr	x3
.LVL868:
.LBE1628:
.LBE1627:
	.loc 1 1580 0
	ldr	x2, [x20, 8]
.LBB1629:
.LBB1630:
	.loc 10 76 0
	mov	w1, 1
	mov	x0, x2
	ldr	x2, [x2, 96]
	blr	x2
.LVL869:
.LBE1630:
.LBE1629:
	.loc 1 1581 0
	ldr	w1, [x20, 72]
	mov	w0, 1
	sub	w0, w0, w1
	str	w0, [x20, 72]
	.loc 1 1582 0
	ldp	x19, x20, [sp, 16]
.LVL870:
	ldp	x29, x30, [sp], 32
	.cfi_remember_state
	.cfi_restore 30
	.cfi_restore 29
	.cfi_restore 19
	.cfi_restore 20
	.cfi_def_cfa 31, 0
	ret
.LVL871:
	.p2align 3
.L789:
	.cfi_restore_state
.LBB1631:
.LBB1618:
.LBB1615:
.LBB1614:
	.loc 9 268 0
	adrp	x3, dummy_dma_ops
	add	x3, x3, :lo12:dummy_dma_ops
	b	.L787
.LBE1614:
.LBE1615:
.LBE1618:
.LBE1631:
	.cfi_endproc
.LFE2880:
	.size	flip.isra.4, .-flip.isra.4
	.align	2
	.p2align 3,,7
	.type	ebc_power_set.part.7, %function
ebc_power_set.part.7:
.LFB2883:
	.loc 1 390 0
	.cfi_startproc
.LVL872:
	stp	x29, x30, [sp, -32]!
	.cfi_def_cfa_offset 32
	.cfi_offset 29, -32
	.cfi_offset 30, -24
	add	x29, sp, 0
	.cfi_def_cfa_register 29
	stp	x19, x20, [sp, 16]
	.cfi_offset 19, -16
	.cfi_offset 20, -8
	.loc 1 390 0
	mov	x19, x0
	.loc 1 407 0
	str	w1, [x0, 392]
	.loc 1 408 0
	ldr	x1, [x0, 8]
.LVL873:
.LBB1632:
.LBB1633:
	.loc 10 50 0
	mov	x0, x1
.LVL874:
	ldr	x1, [x1, 56]
	blr	x1
.LVL875:
.LBE1633:
.LBE1632:
	.loc 1 409 0
	ldr	x2, [x19, 16]
.LBB1634:
.LBB1635:
	.loc 3 35 0
	mov	w1, 0
	mov	x0, x2
	ldr	x2, [x2, 32]
	blr	x2
.LVL876:
.LBE1635:
.LBE1634:
	.loc 1 410 0
	ldr	w0, [x19, 656]
	cbnz	w0, .L800
	.loc 1 414 0
	ldr	x0, [x19]
	adrp	x1, .LC30
	add	x1, x1, :lo12:.LC30
	bl	_dev_info
.LVL877:
	.loc 1 418 0
	ldp	x19, x20, [sp, 16]
.LVL878:
	ldp	x29, x30, [sp], 32
	.cfi_remember_state
	.cfi_restore 30
	.cfi_restore 29
	.cfi_restore 19
	.cfi_restore 20
	.cfi_def_cfa 31, 0
	ret
.LVL879:
	.p2align 3
.L800:
	.cfi_restore_state
	.loc 1 411 0
	str	wzr, [x19, 656]
.LBB1636:
.LBB1637:
	.file 11 "./include/linux/wakelock.h"
	.loc 11 68 0
	add	x0, x19, 448
	bl	__pm_relax
.LVL880:
.LBE1637:
.LBE1636:
	.loc 1 414 0
	ldr	x0, [x19]
	adrp	x1, .LC30
	add	x1, x1, :lo12:.LC30
	bl	_dev_info
.LVL881:
	.loc 1 418 0
	ldp	x19, x20, [sp, 16]
.LVL882:
	ldp	x29, x30, [sp], 32
	.cfi_restore 20
	.cfi_restore 19
	.cfi_restore 29
	.cfi_restore 30
	.cfi_def_cfa 31, 0
	ret
	.cfi_endproc
.LFE2883:
	.size	ebc_power_set.part.7, .-ebc_power_set.part.7
	.align	2
	.p2align 3,,7
	.type	ebc_suspend, %function
ebc_suspend:
.LFB2872:
	.loc 1 3772 0
	.cfi_startproc
.LVL883:
	stp	x29, x30, [sp, -32]!
	.cfi_def_cfa_offset 32
	.cfi_offset 29, -32
	.cfi_offset 30, -24
	add	x29, sp, 0
	.cfi_def_cfa_register 29
	stp	x19, x20, [sp, 16]
	.cfi_offset 19, -16
	.cfi_offset 20, -8
.LBB1638:
.LBB1639:
	.loc 2 1181 0
	ldr	x20, [x0, 184]
.LBE1639:
.LBE1638:
	.loc 1 3776 0
	add	x19, x20, 192
	ldr	w0, [x19, 200]
.LVL884:
	cmp	w0, 1
	beq	.L804
.L802:
	.loc 1 3780 0
	mov	w0, 1
	str	w0, [x19, 588]
	.loc 1 3782 0
	ldr	x1, [x20, 16]
.LBB1640:
.LBB1641:
	.loc 3 40 0
	mov	x0, x1
	ldr	x1, [x1, 40]
	blr	x1
.LVL885:
.LBE1641:
.LBE1640:
	.loc 1 3783 0
	ldr	x0, [x19, 104]
	adrp	x1, .LC32
	add	x1, x1, :lo12:.LC32
	bl	_dev_info
.LVL886:
	.loc 1 3786 0
	mov	w0, 0
	ldp	x19, x20, [sp, 16]
	ldp	x29, x30, [sp], 32
	.cfi_remember_state
	.cfi_restore 30
	.cfi_restore 29
	.cfi_restore 19
	.cfi_restore 20
	.cfi_def_cfa 31, 0
	ret
	.p2align 3
.L804:
	.cfi_restore_state
	.loc 1 3777 0
	ldr	x0, [x19, 104]
	adrp	x2, .LANCHOR3
	add	x2, x2, :lo12:.LANCHOR3
	adrp	x1, .LC31
	add	x1, x1, :lo12:.LC31
	bl	_dev_info
.LVL887:
.LBB1642:
.LBB1643:
	mov	w1, 0
	mov	x0, x20
	bl	ebc_power_set.part.7
.LVL888:
	b	.L802
.LBE1643:
.LBE1642:
	.cfi_endproc
.LFE2872:
	.size	ebc_suspend, .-ebc_suspend
	.align	2
	.p2align 3,,7
	.type	direct_mode_data_change_part2.isra.8, %function
direct_mode_data_change_part2.isra.8:
.LFB2884:
	.loc 1 1527 0
	.cfi_startproc
.LVL889:
	stp	x29, x30, [sp, -80]!
	.cfi_def_cfa_offset 80
	.cfi_offset 29, -80
	.cfi_offset 30, -72
	.loc 1 1529 0
	adrp	x7, .LANCHOR0
	.loc 1 1527 0
	and	w3, w3, 255
	.loc 1 1541 0
	cmp	w6, 2
	.loc 1 1533 0
	sub	w3, w3, w4
.LVL890:
	.loc 1 1527 0
	add	x29, sp, 0
	.cfi_def_cfa_register 29
	.loc 1 1529 0
	ldr	x4, [x7, #:lo12:.LANCHOR0]
	.loc 1 1527 0
	stp	x19, x20, [sp, 16]
	.loc 1 1534 0
	lsl	w3, w3, 10
.LVL891:
	.loc 1 1527 0
	stp	x21, x22, [sp, 32]
	.cfi_offset 19, -64
	.cfi_offset 20, -56
	.cfi_offset 21, -48
	.cfi_offset 22, -40
	.loc 1 1534 0
	add	x19, x5, x3, sxtw
.LVL892:
	.loc 1 1527 0
	stp	x23, x24, [sp, 48]
	mov	x22, x0
	stp	x25, x26, [sp, 64]
	.cfi_offset 23, -32
	.cfi_offset 24, -24
	.cfi_offset 25, -16
	.cfi_offset 26, -8
	.loc 1 1527 0
	mov	x24, x1
	mov	x25, x2
	.loc 1 1539 0
	ldp	w9, w23, [x4, 108]
	.loc 1 1538 0
	lsr	w20, w9, 3
	.loc 1 1541 0
	beq	.L870
	.loc 1 1544 0
	cmp	w6, 3
	beq	.L808
	lsr	w26, w9, 2
	mov	x0, 0
	.loc 1 1549 0
	mov	w21, 0
.LVL893:
.L807:
	.loc 1 1553 0
	sub	w2, w23, w21
	add	x0, x22, x0
	mov	w1, 0
	mul	w2, w2, w26
	sxtw	x2, w2
	bl	memset
.LVL894:
	.loc 1 1554 0
	cmp	w21, w23
	bge	.L805
	sub	w7, w20, #1
	mul	w8, w21, w26
	add	x7, x7, 1
	lsl	w9, w26, 1
	lsl	x7, x7, 3
.LBB1644:
.LBB1645:
	.loc 1 332 0
	mov	w6, 3
.LBE1645:
.LBE1644:
.LBB1681:
.LBB1682:
	.loc 1 362 0
	mov	w5, 12
.LVL895:
	.p2align 2
.L831:
.LBE1682:
.LBE1681:
	.loc 1 1555 0
	add	x4, x22, x8, sxtw
	.loc 1 1556 0
	cbz	w20, .L810
	mov	x11, 0
.LVL896:
	.p2align 2
.L820:
	.loc 1 1558 0
	ldr	x0, [x25, x11, lsl 3]
	.loc 1 1557 0
	ldr	x2, [x24, x11, lsl 3]
.LBB1723:
.LBB1678:
.LBB1646:
.LBB1647:
	.loc 1 280 0
	lsr	x3, x0, 14
	.loc 1 282 0
	lsr	x17, x0, 30
	.loc 1 280 0
	ubfx	x12, x2, 19, 5
	.loc 1 282 0
	ubfx	x1, x2, 35, 5
	.loc 1 281 0
	lsr	x15, x0, 22
	.loc 1 284 0
	lsr	x14, x0, 46
	.loc 1 280 0
	and	x3, x3, 992
	.loc 1 282 0
	and	x17, x17, 992
	.loc 1 281 0
	lsr	w13, w2, 27
	.loc 1 280 0
	orr	x3, x3, x12
	.loc 1 281 0
	and	x15, x15, 992
	.loc 1 283 0
	lsr	x12, x0, 38
	.loc 1 282 0
	orr	x17, x17, x1
	.loc 1 284 0
	and	x14, x14, 992
	ubfx	x1, x2, 51, 5
	.loc 1 279 0
	lsr	x16, x0, 6
	.loc 1 283 0
	and	x12, x12, 992
	.loc 1 281 0
	orr	x15, x15, x13
	.loc 1 284 0
	orr	x14, x14, x1
	.loc 1 283 0
	ubfx	x13, x2, 43, 5
	.loc 1 278 0
	lsl	x1, x0, 2
.LBE1647:
.LBE1646:
	.loc 1 333 0
	eor	x10, x2, x0
.LVL897:
.LBE1678:
.LBE1723:
	.loc 1 1559 0
	cmp	x2, x0
.LBB1724:
.LBB1679:
.LBB1663:
.LBB1648:
	.loc 1 279 0
	ubfx	x30, x2, 11, 5
	.loc 1 278 0
	and	x1, x1, 992
	.loc 1 279 0
	and	x16, x16, 992
	.loc 1 283 0
	orr	x13, x12, x13
	.loc 1 285 0
	lsr	x0, x0, 54
	.loc 1 278 0
	ubfx	x12, x2, 3, 5
.LBE1648:
.LBE1663:
	.loc 1 338 0
	and	x18, x10, 255
.LBB1664:
.LBB1649:
	.loc 1 278 0
	orr	x12, x1, x12
	.loc 1 279 0
	orr	x16, x16, x30
	.loc 1 285 0
	and	x1, x0, 992
	add	x2, x19, x2, lsr 59
.LBE1649:
.LBE1664:
.LBE1679:
.LBE1724:
	.loc 1 1559 0
	beq	.L811
.LBB1725:
.LBB1680:
	.loc 1 332 0
	cmp	x18, 0
.LBB1665:
.LBB1650:
	.loc 1 280 0
	ldrb	w18, [x19, x3]
.LBE1650:
.LBE1665:
	.loc 1 332 0
	csel	w0, w6, wzr, ne
	.loc 1 341 0
	tst	x10, 65280
	orr	w3, w0, 48
.LBB1666:
.LBB1651:
	.loc 1 282 0
	ldrb	w17, [x19, x17]
.LBE1651:
.LBE1666:
	.loc 1 341 0
	csel	w0, w3, w0, ne
	.loc 1 343 0
	tst	x10, 16711680
	orr	w30, w0, 768
.LBB1667:
.LBB1652:
	.loc 1 279 0
	ldrb	w3, [x19, x16]
.LBE1652:
.LBE1667:
	.loc 1 343 0
	csel	w0, w30, w0, ne
	.loc 1 345 0
	tst	x10, 4278190080
	orr	w30, w0, 12288
.LBB1668:
.LBB1653:
	.loc 1 281 0
	ldrb	w16, [x19, x15]
.LBE1653:
.LBE1668:
	.loc 1 345 0
	csel	w0, w30, w0, ne
	.loc 1 347 0
	tst	x10, 1095216660480
	orr	w15, w0, 196608
.LBB1669:
.LBB1654:
	.loc 1 284 0
	ldrb	w14, [x19, x14]
.LBE1654:
.LBE1669:
	.loc 1 347 0
	csel	w0, w15, w0, ne
.LBB1670:
.LBB1655:
	.loc 1 283 0
	ldrb	w13, [x19, x13]
.LBE1655:
.LBE1670:
	.loc 1 349 0
	tst	x10, 280375465082880
	orr	w15, w0, 3145728
	csel	w0, w15, w0, ne
.LBB1671:
.LBB1656:
	.loc 1 285 0
	ldrb	w2, [x2, x1]
	.loc 1 278 0
	ldrb	w15, [x19, x12]
	.loc 1 280 0
	lsl	w1, w18, 8
	.loc 1 282 0
	lsl	w12, w17, 16
.LBE1656:
.LBE1671:
	.loc 1 351 0
	tst	x10, 71776119061217280
.LBB1672:
.LBB1657:
	.loc 1 285 0
	orr	w1, w1, w3, lsl 4
.LBE1657:
.LBE1672:
	.loc 1 351 0
	orr	w17, w0, 50331648
.LBB1673:
.LBB1658:
	.loc 1 285 0
	orr	w12, w12, w16, lsl 12
	.loc 1 284 0
	lsl	w3, w14, 24
.LBE1658:
.LBE1673:
	.loc 1 351 0
	csel	w0, w17, w0, ne
.LBB1674:
.LBB1659:
	.loc 1 285 0
	orr	w1, w1, w12
	orr	w3, w3, w13, lsl 20
.LBE1659:
.LBE1674:
	.loc 1 353 0
	tst	x10, -72057594037927936
.LBB1675:
.LBB1660:
	.loc 1 285 0
	orr	w1, w1, w3
.LBE1660:
.LBE1675:
	.loc 1 353 0
	orr	w10, w0, 805306368
.LVL898:
.LBB1676:
.LBB1661:
	.loc 1 285 0
	orr	w2, w15, w2, lsl 28
.LBE1661:
.LBE1676:
	.loc 1 353 0
	csel	w0, w10, w0, ne
.LBB1677:
.LBB1662:
	.loc 1 285 0
	orr	w1, w1, w2
.LBE1662:
.LBE1677:
	.loc 1 355 0
	and	w0, w1, w0
.LBE1680:
.LBE1725:
	.loc 1 1560 0
	str	w0, [x4, x11, lsl 2]
.LVL899:
.L811:
	add	x11, x11, 1
	.loc 1 1556 0
	cmp	w20, w11
	bgt	.L820
	add	x24, x24, x7
.LVL900:
	add	x25, x25, x7
.LVL901:
	mov	x11, 0
.LVL902:
	.p2align 2
.L830:
	.loc 1 1565 0
	ldr	x0, [x25, x11, lsl 3]
	.loc 1 1564 0
	ldr	x2, [x24, x11, lsl 3]
.LBB1726:
.LBB1719:
.LBB1683:
.LBB1684:
	.loc 1 293 0
	lsr	x17, x0, 22
	.loc 1 291 0
	lsr	x16, x0, 6
	.loc 1 293 0
	lsr	w3, w2, 27
	.loc 1 295 0
	lsr	x13, x0, 38
	.loc 1 293 0
	and	x17, x17, 992
	.loc 1 291 0
	ubfx	x1, x2, 11, 5
	.loc 1 292 0
	lsr	x15, x0, 14
	.loc 1 290 0
	lsl	x14, x0, 2
	.loc 1 291 0
	and	x16, x16, 992
	.loc 1 293 0
	orr	x17, x17, x3
	.loc 1 295 0
	and	x13, x13, 992
	ubfx	x3, x2, 43, 5
	.loc 1 292 0
	ubfx	x30, x2, 19, 5
	.loc 1 290 0
	ubfx	x12, x2, 3, 5
	.loc 1 292 0
	and	x15, x15, 992
	.loc 1 290 0
	and	x14, x14, 992
	.loc 1 291 0
	orr	x16, x16, x1
	.loc 1 295 0
	orr	x13, x13, x3
	.loc 1 294 0
	lsr	x1, x0, 30
	.loc 1 296 0
	lsr	x3, x0, 46
.LBE1684:
.LBE1683:
	.loc 1 363 0
	eor	x10, x2, x0
.LVL903:
.LBE1719:
.LBE1726:
	.loc 1 1566 0
	cmp	x2, x0
.LBB1727:
.LBB1720:
.LBB1702:
.LBB1685:
	.loc 1 294 0
	and	x1, x1, 992
	.loc 1 292 0
	orr	x15, x15, x30
	.loc 1 290 0
	orr	x14, x14, x12
	.loc 1 294 0
	ubfx	x30, x2, 35, 5
	.loc 1 296 0
	ubfx	x12, x2, 51, 5
	.loc 1 297 0
	lsr	x0, x0, 54
	.loc 1 296 0
	and	x3, x3, 992
	.loc 1 294 0
	orr	x30, x1, x30
.LBE1685:
.LBE1702:
	.loc 1 368 0
	and	x18, x10, 255
.LBB1703:
.LBB1686:
	.loc 1 297 0
	and	x1, x0, 992
	add	x2, x19, x2, lsr 59
	.loc 1 296 0
	orr	x12, x3, x12
.LBE1686:
.LBE1703:
.LBE1720:
.LBE1727:
	.loc 1 1566 0
	beq	.L821
.LBB1728:
.LBB1721:
	.loc 1 362 0
	cmp	x18, 0
.LBB1704:
.LBB1687:
	.loc 1 293 0
	ldrb	w17, [x19, x17]
.LBE1687:
.LBE1704:
	.loc 1 362 0
	csel	w0, w5, wzr, ne
	.loc 1 371 0
	tst	x10, 65280
	orr	w3, w0, 192
.LBB1705:
.LBB1688:
	.loc 1 291 0
	ldrb	w16, [x19, x16]
.LBE1688:
.LBE1705:
	.loc 1 371 0
	csel	w0, w3, w0, ne
	.loc 1 373 0
	tst	x10, 16711680
	orr	w18, w0, 3072
.LBB1706:
.LBB1689:
	.loc 1 292 0
	ldrb	w3, [x19, x15]
.LBE1689:
.LBE1706:
	.loc 1 373 0
	csel	w0, w18, w0, ne
	.loc 1 375 0
	tst	x10, 4278190080
	orr	w15, w0, 49152
.LBB1707:
.LBB1690:
	.loc 1 290 0
	ldrb	w18, [x19, x14]
.LBE1690:
.LBE1707:
	.loc 1 375 0
	csel	w0, w15, w0, ne
	.loc 1 377 0
	tst	x10, 1095216660480
	orr	w14, w0, 786432
.LBB1708:
.LBB1691:
	.loc 1 295 0
	ldrb	w15, [x19, x13]
.LBE1691:
.LBE1708:
	.loc 1 377 0
	csel	w0, w14, w0, ne
.LBB1709:
.LBB1692:
	.loc 1 297 0
	ldrb	w13, [x2, x1]
.LBE1692:
.LBE1709:
	.loc 1 379 0
	tst	x10, 280375465082880
.LBB1710:
.LBB1693:
	.loc 1 294 0
	ldrb	w14, [x19, x30]
.LBE1693:
.LBE1710:
	.loc 1 379 0
	orr	w1, w0, 12582912
.LBB1711:
.LBB1694:
	.loc 1 296 0
	ldrb	w2, [x19, x12]
.LBE1694:
.LBE1711:
	.loc 1 379 0
	csel	w0, w1, w0, ne
.LBB1712:
.LBB1695:
	.loc 1 291 0
	lsl	w16, w16, 6
	.loc 1 293 0
	lsl	w1, w17, 14
.LBE1695:
.LBE1712:
	.loc 1 381 0
	tst	x10, 71776119061217280
.LBB1713:
.LBB1696:
	.loc 1 297 0
	orr	w1, w1, w3, lsl 10
.LBE1696:
.LBE1713:
	.loc 1 381 0
	orr	w17, w0, 201326592
.LBB1714:
.LBB1697:
	.loc 1 297 0
	orr	w3, w16, w18, lsl 2
	.loc 1 295 0
	lsl	w12, w15, 22
.LBE1697:
.LBE1714:
	.loc 1 381 0
	csel	w0, w17, w0, ne
.LBB1715:
.LBB1698:
	.loc 1 297 0
	orr	w1, w1, w3
	orr	w12, w12, w14, lsl 18
	lsl	w3, w13, 30
.LBE1698:
.LBE1715:
	.loc 1 383 0
	tst	x10, -72057594037927936
.LBB1716:
.LBB1699:
	.loc 1 297 0
	orr	w3, w3, w2, lsl 26
.LBE1699:
.LBE1716:
	.loc 1 383 0
	orr	w10, w0, -1073741824
.LVL904:
.LBB1717:
.LBB1700:
	.loc 1 297 0
	orr	w1, w1, w12
.LBE1700:
.LBE1717:
.LBE1721:
.LBE1728:
	.loc 1 1567 0
	ldr	w2, [x4, x11, lsl 2]
.LBB1729:
.LBB1722:
	.loc 1 383 0
	csel	w0, w10, w0, ne
.LBB1718:
.LBB1701:
	.loc 1 297 0
	orr	w1, w1, w3
.LBE1701:
.LBE1718:
	.loc 1 385 0
	and	w0, w1, w0
.LBE1722:
.LBE1729:
	.loc 1 1567 0
	orr	w0, w2, w0
	str	w0, [x4, x11, lsl 2]
.LVL905:
.L821:
	add	x11, x11, 1
	.loc 1 1563 0
	cmp	w20, w11
	bgt	.L830
	add	x24, x24, x7
	add	x25, x25, x7
.L810:
	.loc 1 1554 0
	add	w21, w21, 2
	add	w8, w8, w9
	cmp	w23, w21
	bgt	.L831
.L805:
	.loc 1 1571 0
	ldp	x19, x20, [sp, 16]
.LVL906:
	ldp	x21, x22, [sp, 32]
.LVL907:
	ldp	x23, x24, [sp, 48]
.LVL908:
	ldp	x25, x26, [sp, 64]
.LVL909:
	ldp	x29, x30, [sp], 80
	.cfi_remember_state
	.cfi_restore 30
	.cfi_restore 29
	.cfi_restore 25
	.cfi_restore 26
	.cfi_restore 23
	.cfi_restore 24
	.cfi_restore 21
	.cfi_restore 22
	.cfi_restore 19
	.cfi_restore 20
	.cfi_def_cfa 31, 0
	ret
.LVL910:
.L870:
	.cfi_restore_state
	.loc 1 1543 0
	add	w23, w23, w23, lsr 31
.LVL911:
	lsr	w26, w9, 2
	asr	w23, w23, 1
.LVL912:
	mov	x0, 0
	.loc 1 1542 0
	mov	w21, 0
.LVL913:
	b	.L807
.LVL914:
.L808:
	.loc 1 1545 0
	add	w21, w23, w23, lsr 31
	lsr	w26, w9, 2
	asr	w21, w21, 1
.LVL915:
	.loc 1 1546 0
	mul	w1, w20, w21
	mul	w0, w21, w26
	sbfiz	x1, x1, 3, 32
	sxtw	x0, w0
	add	x24, x24, x1
	.loc 1 1547 0
	add	x25, x2, x1
	b	.L807
	.cfi_endproc
.LFE2884:
	.size	direct_mode_data_change_part2.isra.8, .-direct_mode_data_change_part2.isra.8
	.align	2
	.p2align 3,,7
	.type	direct_mode_data_change_part.isra.9, %function
direct_mode_data_change_part.isra.9:
.LFB2885:
	.loc 1 1439 0
	.cfi_startproc
.LVL916:
	stp	x29, x30, [sp, -96]!
	.cfi_def_cfa_offset 96
	.cfi_offset 29, -96
	.cfi_offset 30, -88
	.loc 1 1441 0
	adrp	x7, .LANCHOR0
	.loc 1 1439 0
	and	w3, w3, 255
	.loc 1 1452 0
	cmp	w6, 2
	.loc 1 1445 0
	sub	w4, w3, w4
.LVL917:
	.loc 1 1439 0
	add	x29, sp, 0
	.cfi_def_cfa_register 29
	.loc 1 1441 0
	ldr	x3, [x7, #:lo12:.LANCHOR0]
	.loc 1 1439 0
	stp	x23, x24, [sp, 48]
	.loc 1 1446 0
	lsl	w4, w4, 10
.LVL918:
	.cfi_offset 23, -48
	.cfi_offset 24, -40
	.loc 1 1449 0
	add	x23, x3, 24
	.loc 1 1439 0
	stp	x19, x20, [sp, 16]
	stp	x21, x22, [sp, 32]
	.cfi_offset 19, -80
	.cfi_offset 20, -72
	.cfi_offset 21, -64
	.cfi_offset 22, -56
	mov	x20, x1
	str	x27, [sp, 80]
	.cfi_offset 27, -16
	mov	x27, x0
	stp	x25, x26, [sp, 64]
	.cfi_offset 25, -32
	.cfi_offset 26, -24
	.loc 1 1439 0
	mov	x21, x2
	.loc 1 1446 0
	add	x19, x5, x4, sxtw
.LVL919:
	.loc 1 1450 0
	ldp	w10, w0, [x23, 84]
.LVL920:
	.loc 1 1449 0
	lsr	w22, w10, 3
	.loc 1 1452 0
	beq	.L909
	mov	w25, w0
.LVL921:
	.loc 1 1455 0
	cmp	w6, 3
	.loc 1 1460 0
	mov	w24, 0
.LVL922:
	.loc 1 1455 0
	beq	.L910
.L873:
	.loc 1 1464 0
	ldr	w1, [x23, 156]
	.loc 1 1463 0
	lsr	w26, w10, 2
.LVL923:
	.loc 1 1464 0
	cbz	w1, .L874
	.loc 1 1465 0
	sub	w2, w25, w24
	sub	w0, w0, w25
	mov	w1, 0
	mul	w2, w2, w26
	mul	w0, w0, w26
	sxtw	x2, w2
	add	x0, x27, x0
	bl	memset
.LVL924:
	.loc 1 1466 0
	ldr	w0, [x23, 88]
	sub	w0, w0, #1
	sub	w0, w0, w24
	mul	w0, w0, w26
	neg	w26, w26
	add	x27, x27, x0
.L877:
	.loc 1 1473 0
	cmp	w25, w24
	ble	.L871
	sub	w9, w22, #1
	sxtw	x10, w26
	add	x9, x9, 1
.LBB1730:
.LBB1731:
	.loc 1 302 0
	mov	w8, 3
	lsl	x9, x9, 3
.LVL925:
	.p2align 2
.L876:
.LBE1731:
.LBE1730:
	.loc 1 1474 0
	mov	x5, 0
	cbz	w22, .L889
	.p2align 2
.L906:
	.loc 1 1476 0
	ldr	x0, [x21, x5, lsl 3]
.LVL926:
	.loc 1 1475 0
	ldr	x2, [x20, x5, lsl 3]
.LVL927:
.LBB1771:
.LBB1768:
.LBB1732:
.LBB1733:
	.loc 1 270 0
	lsr	x15, x0, 30
	.loc 1 268 0
	lsr	x14, x0, 14
	.loc 1 272 0
	lsr	x1, x0, 46
	.loc 1 270 0
	ubfx	x6, x2, 35, 5
	.loc 1 268 0
	ubfx	x3, x2, 19, 5
	.loc 1 269 0
	lsr	x13, x0, 22
	.loc 1 267 0
	lsr	x12, x0, 6
	.loc 1 272 0
	and	x1, x1, 992
	ubfx	x11, x2, 51, 5
	.loc 1 270 0
	and	x15, x15, 992
	.loc 1 268 0
	and	x14, x14, 992
	.loc 1 269 0
	lsr	w7, w2, 27
	and	x13, x13, 992
	.loc 1 270 0
	orr	x15, x15, x6
	.loc 1 267 0
	and	x12, x12, 992
	ubfx	x6, x2, 11, 5
	.loc 1 268 0
	orr	x14, x14, x3
	.loc 1 272 0
	orr	x11, x1, x11
	.loc 1 271 0
	lsr	x3, x0, 38
	.loc 1 266 0
	lsl	x1, x0, 2
.LBE1733:
.LBE1732:
	.loc 1 303 0
	eor	x4, x2, x0
.LBE1768:
.LBE1771:
	.loc 1 1477 0
	cmp	x2, x0
.LBB1772:
.LBB1769:
.LBB1751:
.LBB1734:
	.loc 1 266 0
	and	x1, x1, 992
	.loc 1 269 0
	orr	x13, x13, x7
	.loc 1 267 0
	orr	x12, x12, x6
	.loc 1 271 0
	ubfx	x7, x2, 43, 5
	.loc 1 266 0
	ubfx	x6, x2, 3, 5
	.loc 1 271 0
	and	x3, x3, 992
	.loc 1 273 0
	lsr	x0, x0, 54
.LVL928:
	.loc 1 266 0
	orr	x6, x1, x6
.LBE1734:
.LBE1751:
	.loc 1 308 0
	and	x16, x4, 255
.LBB1752:
.LBB1735:
	.loc 1 271 0
	orr	x7, x3, x7
	.loc 1 273 0
	and	x1, x0, 992
	add	x2, x19, x2, lsr 59
.LVL929:
.LBE1735:
.LBE1752:
.LBE1769:
.LBE1772:
	.loc 1 1477 0
	beq	.L878
.LBB1773:
.LBB1770:
	.loc 1 302 0
	cmp	x16, 0
.LBB1753:
.LBB1736:
	.loc 1 268 0
	ldrb	w14, [x19, x14]
.LBE1736:
.LBE1753:
	.loc 1 302 0
	csel	w0, w8, wzr, ne
	.loc 1 311 0
	tst	x4, 65280
	orr	w3, w0, 12
.LBB1754:
.LBB1737:
	.loc 1 270 0
	ldrb	w15, [x19, x15]
.LBE1737:
.LBE1754:
	.loc 1 311 0
	csel	w0, w3, w0, ne
	.loc 1 313 0
	tst	x4, 16711680
	orr	w16, w0, 48
.LBB1755:
.LBB1738:
	.loc 1 269 0
	ldrb	w3, [x19, x13]
.LBE1738:
.LBE1755:
	.loc 1 313 0
	csel	w0, w16, w0, ne
	.loc 1 315 0
	tst	x4, 4278190080
	orr	w13, w0, 192
.LBB1756:
.LBB1739:
	.loc 1 267 0
	ldrb	w12, [x19, x12]
.LBE1739:
.LBE1756:
	.loc 1 315 0
	and	w13, w13, 65535
.LBB1757:
.LBB1740:
	.loc 1 272 0
	ldrb	w11, [x19, x11]
.LBE1740:
.LBE1757:
	.loc 1 315 0
	csel	w0, w13, w0, ne
	.loc 1 317 0
	tst	x4, 1095216660480
	orr	w16, w0, 768
.LBB1758:
.LBB1741:
	.loc 1 266 0
	ldrb	w13, [x19, x6]
.LBE1741:
.LBE1758:
	.loc 1 317 0
	and	w16, w16, 65535
.LBB1759:
.LBB1742:
	.loc 1 271 0
	ldrb	w7, [x19, x7]
.LBE1742:
.LBE1759:
	.loc 1 317 0
	csel	w0, w16, w0, ne
	.loc 1 319 0
	tst	x4, 280375465082880
	orr	w6, w0, 3072
.LBB1760:
.LBB1743:
	.loc 1 273 0
	ldrb	w2, [x2, x1]
.LBE1743:
.LBE1760:
	.loc 1 319 0
	and	w6, w6, 65535
.LBB1761:
.LBB1744:
	.loc 1 270 0
	lsl	w1, w15, 8
.LBE1744:
.LBE1761:
	.loc 1 319 0
	csel	w0, w6, w0, ne
.LBB1762:
.LBB1745:
	.loc 1 268 0
	lsl	w6, w14, 4
.LBE1745:
.LBE1762:
	.loc 1 321 0
	orr	w14, w0, 12288
	tst	x4, 71776119061217280
	and	w14, w14, 65535
.LBB1763:
.LBB1746:
	.loc 1 273 0
	orr	w1, w1, w3, lsl 6
.LBE1746:
.LBE1763:
	.loc 1 321 0
	csel	w0, w14, w0, ne
.LBB1764:
.LBB1747:
	.loc 1 273 0
	orr	w12, w6, w12, lsl 2
	.loc 1 272 0
	lsl	w6, w11, 12
.LBE1747:
.LBE1764:
	.loc 1 323 0
	orr	w3, w0, -16384
.LBB1765:
.LBB1748:
	.loc 1 273 0
	orr	w1, w1, w12
	orr	w6, w6, w7, lsl 10
.LBE1748:
.LBE1765:
	.loc 1 323 0
	tst	x4, -72057594037927936
	and	w3, w3, 65535
.LBB1766:
.LBB1749:
	.loc 1 273 0
	orr	w1, w1, w6
	orr	w2, w13, w2, lsl 14
.LBE1749:
.LBE1766:
	.loc 1 323 0
	csel	w0, w3, w0, ne
.LBB1767:
.LBB1750:
	.loc 1 273 0
	orr	w1, w1, w2
.LBE1750:
.LBE1767:
	.loc 1 325 0
	and	w0, w0, w1
.LBE1770:
.LBE1773:
	.loc 1 1478 0
	strh	w0, [x27, x5, lsl 1]
.L878:
	add	x5, x5, 1
	.loc 1 1474 0
	cmp	w22, w5
	bgt	.L906
	add	x20, x20, x9
	add	x21, x21, x9
.L889:
	.loc 1 1473 0
	add	w24, w24, 1
	add	x27, x27, x10
	cmp	w25, w24
	bne	.L876
.L871:
	.loc 1 1482 0
	ldp	x19, x20, [sp, 16]
.LVL930:
	ldp	x21, x22, [sp, 32]
.LVL931:
	ldp	x23, x24, [sp, 48]
.LVL932:
	ldp	x25, x26, [sp, 64]
.LVL933:
	ldr	x27, [sp, 80]
.LVL934:
	ldp	x29, x30, [sp], 96
	.cfi_remember_state
	.cfi_restore 30
	.cfi_restore 29
	.cfi_restore 27
	.cfi_restore 25
	.cfi_restore 26
	.cfi_restore 23
	.cfi_restore 24
	.cfi_restore 21
	.cfi_restore 22
	.cfi_restore 19
	.cfi_restore 20
	.cfi_def_cfa 31, 0
	ret
.LVL935:
.L874:
	.cfi_restore_state
	.loc 1 1470 0
	sub	w2, w25, w24
	.loc 1 1469 0
	mul	w23, w26, w24
	.loc 1 1470 0
	mov	w1, 0
	mul	w2, w2, w26
	.loc 1 1469 0
	add	x27, x27, x23, sxtw
	.loc 1 1470 0
	mov	x0, x27
	sxtw	x2, w2
	bl	memset
.LVL936:
	b	.L877
.LVL937:
.L909:
	.loc 1 1454 0
	add	w25, w0, w0, lsr 31
	.loc 1 1453 0
	mov	w24, 0
.LVL938:
	.loc 1 1454 0
	asr	w25, w25, 1
.LVL939:
	b	.L873
.L910:
	.loc 1 1456 0
	add	w24, w0, w0, lsr 31
.LVL940:
	asr	w24, w24, 1
.LVL941:
	.loc 1 1457 0
	mul	w1, w22, w24
	sbfiz	x1, x1, 3, 32
	add	x20, x20, x1
	.loc 1 1458 0
	add	x21, x2, x1
	b	.L873
	.cfi_endproc
.LFE2885:
	.size	direct_mode_data_change_part.isra.9, .-direct_mode_data_change_part.isra.9
	.align	2
	.p2align 3,,7
	.type	ebc_frame_start, %function
ebc_frame_start:
.LFB2835:
	.loc 1 1641 0
	.cfi_startproc
.LVL942:
	stp	x29, x30, [sp, -48]!
	.cfi_def_cfa_offset 48
	.cfi_offset 29, -48
	.cfi_offset 30, -40
	add	x29, sp, 0
	.cfi_def_cfa_register 29
	stp	x19, x20, [sp, 16]
	.cfi_offset 19, -32
	.cfi_offset 20, -24
	.loc 1 1643 0
	add	x19, x0, 192
	.loc 1 1641 0
	str	x21, [sp, 32]
	.cfi_offset 21, -16
	.loc 1 1641 0
	mov	x20, x0
	.loc 1 1642 0
	add	x21, x0, 24
	.loc 1 1645 0
	ldr	w6, [x19, 252]
	cmp	w6, 3
	beq	.L913
	cmp	w6, 4
	beq	.L914
	cmp	w6, 1
	beq	.L937
	.loc 1 1751 0
	ldrb	w4, [x19, 56]
	str	w4, [x19, 72]
	.loc 1 1754 0
	ldp	x2, x1, [x19, 216]
	.loc 1 1752 0
	ldr	w0, [x21, 164]
	.loc 1 1753 0
	ldr	x5, [x20, 320]
	.loc 1 1752 0
	cbnz	w0, .L938
	.loc 1 1759 0
	ldr	x1, [x1, 16]
	mov	w3, w4
	ldr	x2, [x2, 16]
	mov	w6, 1
	ldr	x0, [x19, 184]
	bl	direct_mode_data_change.isra.2
.LVL943:
	.loc 1 1764 0
	ldr	w4, [x19, 72]
	.loc 1 1767 0
	ldp	x2, x1, [x19, 216]
	.loc 1 1764 0
	sub	w4, w4, #1
	str	w4, [x19, 72]
	.loc 1 1765 0
	ldr	w0, [x21, 164]
	.loc 1 1766 0
	ldrb	w3, [x20, 248]
	ldr	x5, [x20, 320]
	.loc 1 1765 0
	cbz	w0, .L932
.L943:
	.loc 1 1766 0
	ldr	x1, [x1, 16]
	mov	w6, 1
	ldr	x2, [x2, 16]
	ldr	x0, [x19, 192]
	bl	direct_mode_data_change2.isra.3
.LVL944:
	b	.L933
	.p2align 3
.L937:
	.loc 1 1721 0
	ldrb	w4, [x19, 56]
	str	w4, [x19, 72]
	.loc 1 1725 0
	ldr	x1, [x19, 216]
	.loc 1 1722 0
	ldr	w0, [x21, 164]
.LVL945:
	cbnz	w0, .L939
	.loc 1 1730 0
	ldr	x0, [x19, 224]
	.loc 1 1729 0
	mov	w3, w4
	ldr	x2, [x1, 16]
	ldr	x5, [x20, 320]
	ldr	x1, [x0, 16]
	ldr	x0, [x19, 184]
	bl	direct_mode_data_change_part.isra.9
.LVL946:
	.loc 1 1735 0
	ldr	w4, [x19, 72]
	.loc 1 1738 0
	ldp	x2, x1, [x19, 216]
	.loc 1 1735 0
	sub	w4, w4, #1
	str	w4, [x19, 72]
	.loc 1 1736 0
	ldr	w0, [x21, 164]
	.loc 1 1737 0
	ldrb	w3, [x20, 248]
	ldr	x5, [x20, 320]
	.loc 1 1736 0
	cbz	w0, .L928
.L942:
	.loc 1 1737 0
	ldr	x1, [x1, 16]
	mov	w6, 1
	ldr	x2, [x2, 16]
	ldr	x0, [x19, 192]
	bl	direct_mode_data_change_part2.isra.8
.LVL947:
	b	.L933
.LVL948:
	.p2align 3
.L914:
	.loc 1 1647 0
	ldrsw	x2, [x19, 32]
	mov	w1, 0
	ldr	x0, [x19, 184]
.LVL949:
	bl	memset
.LVL950:
	.loc 1 1648 0
	ldr	w0, [x21, 164]
	cbnz	w0, .L940
	.loc 1 1656 0
	ldp	x1, x2, [x19, 152]
	mov	x5, x19
	ldp	x3, x4, [x19, 168]
	ldr	x0, [x19, 184]
	bl	get_overlay_image_area
.LVL951:
.L917:
	.loc 1 1662 0
	ldr	w0, [x19, 60]
	cbz	w0, .L918
.LBB1774:
.LBB1775:
	.loc 1 1586 0
	str	wzr, [x21, 72]
	.loc 1 1587 0
	mov	x0, x21
	ldr	w1, [x20, 224]
	bl	flip.isra.4
.LVL952:
.LBE1775:
.LBE1774:
	.loc 1 1664 0
	ldrsw	x2, [x19, 32]
	mov	w1, 0
	ldr	x0, [x19, 192]
	bl	memset
.LVL953:
	.loc 1 1665 0
	ldr	w0, [x21, 164]
	cbz	w0, .L919
	.loc 1 1666 0
	ldp	x1, x2, [x19, 152]
	mov	x4, x19
	ldr	x3, [x19, 168]
	ldr	x0, [x19, 192]
	bl	get_overlay_image_area2.isra.0
.LVL954:
	b	.L911
.LVL955:
	.p2align 3
.L913:
	.loc 1 1685 0
	ldr	w0, [x21, 164]
.LVL956:
	.loc 1 1686 0
	ldp	x1, x2, [x19, 152]
	ldr	x3, [x19, 168]
	.loc 1 1685 0
	cbnz	w0, .L941
	.loc 1 1693 0
	ldr	x0, [x19, 184]
	mov	w5, 1
	mov	x4, x19
	bl	get_auto_image
.LVL957:
.L922:
	.loc 1 1699 0
	ldr	w0, [x19, 60]
	cbz	w0, .L923
	.loc 1 1700 0
	ldr	w0, [x21, 164]
	.loc 1 1701 0
	ldp	x1, x2, [x19, 152]
	ldr	x3, [x19, 168]
	.loc 1 1700 0
	cbz	w0, .L924
	.loc 1 1701 0
	ldr	x0, [x19, 192]
	mov	w5, 1
	mov	x4, x19
	bl	get_auto_image2
.LVL958:
	.p2align 2
.L933:
.LBB1776:
.LBB1777:
	.loc 1 1586 0
	str	wzr, [x21, 72]
	.loc 1 1587 0
	mov	x0, x21
	ldr	w1, [x20, 224]
	bl	flip.isra.4
.LVL959:
.L911:
.LBE1777:
.LBE1776:
	.loc 1 1782 0
	ldp	x19, x20, [sp, 16]
.LVL960:
	ldr	x21, [sp, 32]
	ldp	x29, x30, [sp], 48
	.cfi_remember_state
	.cfi_restore 30
	.cfi_restore 29
	.cfi_restore 21
	.cfi_restore 19
	.cfi_restore 20
	.cfi_def_cfa 31, 0
	ret
.LVL961:
	.p2align 3
.L941:
	.cfi_restore_state
	.loc 1 1686 0
	ldr	x0, [x19, 184]
	mov	w5, 1
	mov	x4, x19
	bl	get_auto_image2
.LVL962:
	b	.L922
	.p2align 3
.L940:
	.loc 1 1649 0
	ldp	x1, x2, [x19, 152]
	mov	x4, x19
	ldr	x3, [x19, 168]
	ldr	x0, [x19, 184]
	bl	get_overlay_image_area2.isra.0
.LVL963:
	b	.L917
	.p2align 3
.L939:
	.loc 1 1724 0
	ldr	x0, [x19, 224]
	.loc 1 1723 0
	mov	w3, w4
	ldr	x2, [x1, 16]
	ldr	x5, [x20, 320]
	ldr	x1, [x0, 16]
	ldr	x0, [x19, 184]
	bl	direct_mode_data_change_part2.isra.8
.LVL964:
	.loc 1 1735 0
	ldr	w4, [x19, 72]
	.loc 1 1738 0
	ldp	x2, x1, [x19, 216]
	.loc 1 1735 0
	sub	w4, w4, #1
	str	w4, [x19, 72]
	.loc 1 1736 0
	ldr	w0, [x21, 164]
	.loc 1 1737 0
	ldrb	w3, [x20, 248]
	ldr	x5, [x20, 320]
	.loc 1 1736 0
	cbnz	w0, .L942
.L928:
	.loc 1 1743 0
	ldr	x1, [x1, 16]
	mov	w6, 1
	ldr	x2, [x2, 16]
	ldr	x0, [x19, 192]
	bl	direct_mode_data_change_part.isra.9
.LVL965:
	b	.L933
	.p2align 3
.L938:
	.loc 1 1753 0
	ldr	x1, [x1, 16]
	mov	w3, w4
	ldr	x2, [x2, 16]
	mov	w6, 1
	ldr	x0, [x19, 184]
	bl	direct_mode_data_change2.isra.3
.LVL966:
	.loc 1 1764 0
	ldr	w4, [x19, 72]
	.loc 1 1767 0
	ldp	x2, x1, [x19, 216]
	.loc 1 1764 0
	sub	w4, w4, #1
	str	w4, [x19, 72]
	.loc 1 1765 0
	ldr	w0, [x21, 164]
	.loc 1 1766 0
	ldrb	w3, [x20, 248]
	ldr	x5, [x20, 320]
	.loc 1 1765 0
	cbnz	w0, .L943
.L932:
	.loc 1 1772 0
	ldr	x1, [x1, 16]
	mov	w6, 1
	ldr	x2, [x2, 16]
	ldr	x0, [x19, 192]
	bl	direct_mode_data_change.isra.2
.LVL967:
	b	.L933
	.p2align 3
.L924:
	.loc 1 1708 0
	ldr	x0, [x19, 192]
	mov	w5, 1
	mov	x4, x19
	bl	get_auto_image
.LVL968:
	b	.L933
	.p2align 3
.L918:
	.loc 1 1680 0
	ldr	x0, [x19, 104]
	adrp	x2, .LANCHOR3
	add	x2, x2, :lo12:.LANCHOR3
	adrp	x1, .LC33
	add	x2, x2, 16
	add	x1, x1, :lo12:.LC33
	bl	_dev_info
.LVL969:
	.loc 1 1681 0
	str	wzr, [x19, 52]
	b	.L911
	.p2align 3
.L919:
	.loc 1 1673 0
	ldp	x1, x2, [x19, 152]
	mov	x5, x19
	ldp	x3, x4, [x19, 168]
	ldr	x0, [x19, 192]
	bl	get_overlay_image_area
.LVL970:
	b	.L911
	.p2align 3
.L923:
	.loc 1 1716 0
	ldr	x0, [x19, 104]
	adrp	x2, .LANCHOR3
	add	x2, x2, :lo12:.LANCHOR3
	adrp	x1, .LC34
	add	x2, x2, 16
	add	x1, x1, :lo12:.LC34
	bl	_dev_info
.LVL971:
	.loc 1 1717 0
	str	wzr, [x19, 52]
	b	.L911
	.cfi_endproc
.LFE2835:
	.size	ebc_frame_start, .-ebc_frame_start
	.align	2
	.p2align 3,,7
	.type	ebc_auto_assist_tast_function, %function
ebc_auto_assist_tast_function:
.LFB2836:
	.loc 1 1786 0
	.cfi_startproc
.LVL972:
	stp	x29, x30, [sp, -96]!
	.cfi_def_cfa_offset 96
	.cfi_offset 29, -96
	.cfi_offset 30, -88
	.loc 1 1787 0
	adrp	x1, .LANCHOR0
	.loc 1 1786 0
	adrp	x0, __stack_chk_guard
.LVL973:
	add	x0, x0, :lo12:__stack_chk_guard
	add	x29, sp, 0
	.cfi_def_cfa_register 29
	stp	x19, x20, [sp, 16]
	stp	x21, x22, [sp, 32]
	.cfi_offset 19, -80
	.cfi_offset 20, -72
	.cfi_offset 21, -64
	.cfi_offset 22, -56
	adrp	x22, .LANCHOR1
	stp	x23, x24, [sp, 48]
	.loc 1 1792 0
	add	x22, x22, :lo12:.LANCHOR1
	.loc 1 1786 0
	str	x25, [sp, 64]
	.cfi_offset 23, -48
	.cfi_offset 24, -40
	.cfi_offset 25, -32
	.loc 1 1792 0
	add	x20, x22, 328
	.loc 1 1787 0
	ldr	x25, [x1, #:lo12:.LANCHOR0]
.LVL974:
	.loc 1 1865 0
	add	x22, x22, 352
.LBB1778:
.LBB1779:
.LBB1780:
	.file 12 "./include/linux/compiler.h"
	.loc 12 290 0
	mov	x24, 2
.LBE1780:
.LBE1779:
.LBE1778:
	.loc 1 1786 0
	ldr	x1, [x0]
	str	x1, [x29, 88]
	mov	x1,0
.LBB1785:
.LBB1782:
.LBB1783:
	.loc 4 19 0
#APP
// 19 "./arch/arm64/include/asm/current.h" 1
	mrs x23, sp_el0
// 0 "" 2
.LVL975:
#NO_APP
.LBE1783:
.LBE1782:
.LBE1785:
	.loc 1 1789 0
	add	x19, x25, 192
	add	x21, x25, 24
	b	.L954
	.p2align 3
.L966:
	.loc 1 1797 0
	cmp	w5, 4
	beq	.L947
	cmp	w5, 1
	beq	.L965
	.loc 1 1849 0
	ldr	w4, [x19, 72]
	cbz	w4, .L950
	.loc 1 1851 0
	ldr	w0, [x21, 164]
	cbz	w0, .L953
	.loc 1 1852 0
	ldrsw	x0, [x21, 72]
	mov	w6, 3
	.loc 1 1853 0
	ldp	x2, x1, [x19, 216]
	.loc 1 1852 0
	add	x0, x19, x0, lsl 3
	ldrb	w3, [x25, 248]
	ldr	x5, [x25, 320]
	ldr	x1, [x1, 16]
	ldr	x0, [x0, 184]
	ldr	x2, [x2, 16]
	bl	direct_mode_data_change2.isra.3
.LVL976:
	.p2align 2
.L950:
	.loc 1 1865 0
	mov	x0, x22
	bl	up
.LVL977:
	.loc 1 1866 0
	mov	x0, x20
	bl	up
.LVL978:
	.loc 1 1867 0
	bl	schedule
.LVL979:
.L954:
	.loc 1 1792 0
	mov	x0, x20
	bl	down
.LVL980:
.LBB1786:
.LBB1784:
.LBB1781:
	.loc 12 290 0
	str	x24, [x23, 32]
.LBE1781:
.LBE1784:
.LBE1786:
	.loc 1 1796 0
#APP
// 1796 "drivers/gpu/drm/rockchip/ebc-dev/ebc_dev.c" 1
	dmb ish
// 0 "" 2
	.loc 1 1797 0
#NO_APP
	ldr	w5, [x19, 252]
	cmp	w5, 3
	bne	.L966
	.loc 1 1817 0
	ldr	w0, [x21, 164]
	cbz	w0, .L951
	.loc 1 1818 0
	ldrsw	x0, [x21, 72]
	mov	x4, x19
	ldp	x1, x2, [x19, 152]
	add	x0, x19, x0, lsl 3
	ldr	x3, [x19, 168]
	ldr	x0, [x0, 184]
	bl	get_auto_image2
.LVL981:
	b	.L950
	.p2align 3
.L965:
	.loc 1 1833 0
	ldr	w4, [x19, 72]
	cbz	w4, .L950
	.loc 1 1835 0
	ldr	w0, [x21, 164]
	cbz	w0, .L952
	.loc 1 1836 0
	ldrsw	x0, [x21, 72]
	mov	w6, 3
	.loc 1 1837 0
	ldp	x2, x1, [x19, 216]
	.loc 1 1836 0
	add	x0, x19, x0, lsl 3
	ldrb	w3, [x25, 248]
	ldr	x5, [x25, 320]
	ldr	x1, [x1, 16]
	ldr	x0, [x0, 184]
	ldr	x2, [x2, 16]
	bl	direct_mode_data_change_part2.isra.8
.LVL982:
	b	.L950
	.p2align 3
.L947:
	.loc 1 1799 0
	ldr	w0, [x21, 164]
	cbz	w0, .L949
	.loc 1 1800 0
	ldrsw	x0, [x21, 72]
	mov	w6, 3
	ldp	x1, x2, [x19, 152]
	mov	x5, x19
	add	x0, x19, x0, lsl 3
	ldp	x3, x4, [x19, 168]
	ldr	x0, [x0, 184]
	bl	get_overlay_image2
.LVL983:
	b	.L950
	.p2align 3
.L951:
	.loc 1 1825 0
	ldrsw	x0, [x21, 72]
	mov	x4, x19
	ldp	x1, x2, [x19, 152]
	add	x0, x19, x0, lsl 3
	ldr	x3, [x19, 168]
	ldr	x0, [x0, 184]
	bl	get_auto_image
.LVL984:
	b	.L950
	.p2align 3
.L949:
	.loc 1 1808 0
	ldrsw	x0, [x21, 72]
	mov	w6, 3
	ldp	x1, x2, [x19, 152]
	mov	x5, x19
	add	x0, x19, x0, lsl 3
	ldp	x3, x4, [x19, 168]
	ldr	x0, [x0, 184]
	bl	get_overlay_image
.LVL985:
	b	.L950
	.p2align 3
.L953:
	.loc 1 1858 0
	ldrsw	x0, [x21, 72]
	mov	w6, 3
	.loc 1 1859 0
	ldp	x2, x1, [x19, 216]
	.loc 1 1858 0
	add	x0, x19, x0, lsl 3
	ldrb	w3, [x25, 248]
	ldr	x5, [x25, 320]
	ldr	x1, [x1, 16]
	ldr	x0, [x0, 184]
	ldr	x2, [x2, 16]
	bl	direct_mode_data_change.isra.2
.LVL986:
	b	.L950
	.p2align 3
.L952:
	.loc 1 1842 0
	ldrsw	x0, [x21, 72]
	mov	w6, 3
	.loc 1 1843 0
	ldp	x2, x1, [x19, 216]
	.loc 1 1842 0
	add	x0, x19, x0, lsl 3
	ldrb	w3, [x25, 248]
	ldr	x5, [x25, 320]
	ldr	x1, [x1, 16]
	ldr	x0, [x0, 184]
	ldr	x2, [x2, 16]
	bl	direct_mode_data_change_part.isra.9
.LVL987:
	b	.L950
	.cfi_endproc
.LFE2836:
	.size	ebc_auto_assist_tast_function, .-ebc_auto_assist_tast_function
	.align	2
	.p2align 3,,7
	.type	check_black_percent.isra.11, %function
check_black_percent.isra.11:
.LFB2887:
	.loc 1 2254 0
	.cfi_startproc
	.loc 1 2265 0
	mov	w2, 26215
	.loc 1 2266 0
	cmp	w1, 0
	.loc 1 2265 0
	movk	w2, 0x6666, lsl 16
	.loc 1 2266 0
	add	w5, w1, 7
	csel	w5, w5, w1, lt
	.loc 1 2265 0
	smull	x4, w1, w2
	.loc 1 2266 0
	asr	w5, w5, 3
	cmp	w5, 0
	.loc 1 2265 0
	asr	x4, x4, 34
	sub	w4, w4, w1, asr 31
.LVL988:
	.loc 1 2266 0
	ble	.L968
	mov	x1, 0
	mov	w2, 0
.LVL989:
	b	.L971
	.p2align 3
.L979:
	cmp	w5, w1
	ble	.L968
.L971:
	.loc 1 2268 0
	ldr	x3, [x0, x1, lsl 3]
	add	x1, x1, 1
	.loc 1 2269 0
	cmp	x3, 0
	cinc	w2, w2, ne
	.loc 1 2270 0
	cmp	w4, w2, lsl 3
	bge	.L979
	.loc 1 2271 0
	mov	w0, 0
	ret
.L968:
	.loc 1 2254 0
	stp	x29, x30, [sp, -16]!
	.cfi_def_cfa_offset 16
	.cfi_offset 29, -16
	.cfi_offset 30, -8
	.loc 1 2274 0
	adrp	x0, .LC35
	add	x0, x0, :lo12:.LC35
	.loc 1 2254 0
	add	x29, sp, 0
	.cfi_def_cfa_register 29
	.loc 1 2274 0
	bl	printk
.LVL990:
	.loc 1 2276 0
	mov	w0, 1
	.loc 1 2277 0
	ldp	x29, x30, [sp], 16
	.cfi_restore 30
	.cfi_restore 29
	.cfi_def_cfa 31, 0
	ret
	.cfi_endproc
.LFE2887:
	.size	check_black_percent.isra.11, .-check_black_percent.isra.11
	.align	2
	.p2align 3,,7
	.type	check_diff_percent.isra.12, %function
check_diff_percent.isra.12:
.LFB2888:
	.loc 1 2302 0
	.cfi_startproc
	.loc 1 2313 0
	mul	w8, w2, w3
	mov	w4, 34079
	movk	w4, 0x51eb, lsl 16
	.loc 1 2314 0
	cmp	w2, 0
	add	w7, w2, 7
	csel	w7, w7, w2, lt
	.loc 1 2313 0
	smull	x4, w8, w4
	.loc 1 2314 0
	asr	w7, w7, 3
	cmp	w7, 0
	.loc 1 2313 0
	asr	x4, x4, 37
	sub	w8, w4, w8, asr 31
.LVL991:
	.loc 1 2314 0
	ble	.L985
	mov	x2, 0
	mov	w9, 0
	mov	w4, 0
.LVL992:
	.p2align 2
.L984:
	.loc 1 2318 0
	ldr	x6, [x0, x2, lsl 3]
	ldr	x5, [x1, x2, lsl 3]
	add	x2, x2, 1
	cmp	x6, x5
	beq	.L982
	.loc 1 2320 0
	add	w4, w4, 1
	.loc 1 2319 0
	mov	w9, 1
.L982:
	.loc 1 2322 0
	cmp	w8, w4, lsl 3
	blt	.L991
	.loc 1 2314 0
	cmp	w7, w2
	bgt	.L984
.L988:
	.loc 1 2329 0
	mov	w0, w9
	ret
.LVL993:
.L985:
	.loc 1 2306 0
	mov	w9, 0
	b	.L988
.LVL994:
.L991:
	.loc 1 2302 0
	stp	x29, x30, [sp, -16]!
	.cfi_def_cfa_offset 16
	.cfi_offset 29, -16
	.cfi_offset 30, -8
	mov	w1, w3
	.loc 1 2323 0
	adrp	x0, .LC36
	add	x0, x0, :lo12:.LC36
	.loc 1 2302 0
	add	x29, sp, 0
	.cfi_def_cfa_register 29
	.loc 1 2323 0
	bl	printk
.LVL995:
	.loc 1 2324 0
	mov	w9, 2
	.loc 1 2329 0
	mov	w0, w9
	ldp	x29, x30, [sp], 16
	.cfi_restore 30
	.cfi_restore 29
	.cfi_def_cfa 31, 0
	ret
	.cfi_endproc
.LFE2888:
	.size	check_diff_percent.isra.12, .-check_diff_percent.isra.12
	.align	2
	.p2align 3,,7
	.type	ebc_probe, %function
ebc_probe:
.LFB2870:
	.loc 1 3637 0
	.cfi_startproc
.LVL996:
	stp	x29, x30, [sp, -208]!
	.cfi_def_cfa_offset 208
	.cfi_offset 29, -208
	.cfi_offset 30, -200
.LBB1938:
.LBB1939:
	.loc 2 711 0
	mov	w2, 32960
	movk	w2, 0x60, lsl 16
.LBE1939:
.LBE1938:
	.loc 1 3637 0
	add	x29, sp, 0
	.cfi_def_cfa_register 29
	stp	x21, x22, [sp, 32]
	.cfi_offset 21, -176
	.cfi_offset 22, -168
	.loc 1 3638 0
	add	x22, x0, 16
	.loc 1 3637 0
	stp	x23, x24, [sp, 48]
	.cfi_offset 23, -160
	.cfi_offset 24, -152
	adrp	x23, __stack_chk_guard
	stp	x19, x20, [sp, 16]
	add	x0, x23, :lo12:__stack_chk_guard
.LVL997:
	stp	x25, x26, [sp, 64]
	stp	x27, x28, [sp, 80]
	.cfi_offset 19, -192
	.cfi_offset 20, -184
	.cfi_offset 25, -144
	.cfi_offset 26, -136
	.cfi_offset 27, -128
	.cfi_offset 28, -120
	.loc 1 3637 0
	ldr	x1, [x0]
	str	x1, [x29, 200]
	mov	x1,0
.LBB1941:
.LBB1940:
	.loc 2 711 0
	mov	x0, x22
	mov	x1, 808
	bl	devm_kmalloc
.LVL998:
.LBE1940:
.LBE1941:
	.loc 1 3653 0
	cbz	x0, .L1054
	.loc 1 3657 0
	adrp	x24, .LANCHOR0
	mov	x20, x0
	.loc 1 3659 0
	adrp	x1, .LC37
	mov	w2, 0
	.loc 1 3657 0
	str	x0, [x24, #:lo12:.LANCHOR0]
	.loc 1 3659 0
	add	x1, x1, :lo12:.LC37
	ldr	x0, [x22, 752]
	.loc 1 3656 0
	str	x22, [x20]
	.loc 1 3659 0
	bl	of_parse_phandle
.LVL999:
	.loc 1 3660 0
	cbz	x0, .L1092
	.loc 1 3665 0
	bl	of_find_device_by_node
.LVL1000:
	.loc 1 3667 0
	cbz	x0, .L996
.LBB1942:
.LBB1943:
.LBB1944:
	.loc 2 1181 0
	ldr	x0, [x0, 200]
.LVL1001:
.LBE1944:
.LBE1943:
.LBE1942:
	.loc 1 3670 0
	str	x0, [x20, 8]
	.loc 1 3671 0
	cbz	x0, .L996
	.loc 1 3673 0
	adrp	x1, frame_done_callback
	add	x1, x1, :lo12:frame_done_callback
	str	x1, [x0, 104]
	.loc 1 3675 0
	add	x2, x29, 96
	adrp	x1, .LC39
	add	x1, x1, :lo12:.LC39
	ldr	x0, [x22, 752]
	bl	of_get_property
.LVL1002:
	mov	x21, x0
.LVL1003:
	.loc 1 3676 0
	ldrsw	x0, [x29, 96]
.LVL1004:
	lsr	x0, x0, 2
.LVL1005:
	str	w0, [x29, 96]
.LVL1006:
	.loc 1 3677 0
	cmp	w0, 0
	beq	.L997
	.loc 1 3682 0 discriminator 1
	mov	w19, 0
.LVL1007:
	bgt	.L1078
	b	.L999
	.p2align 3
.L1000:
	.loc 1 3690 0
	bl	of_find_i2c_device_by_node
.LVL1008:
	.loc 1 3692 0
	cbz	x0, .L1093
.LBB1945:
.LBB1946:
.LBB1947:
	.loc 2 1181 0
	ldr	x0, [x0, 216]
.LVL1009:
.LBE1947:
.LBE1946:
.LBE1945:
	.loc 1 3697 0
	str	x0, [x20, 16]
	.loc 1 3698 0
	cbnz	x0, .L1094
	.loc 1 3682 0 discriminator 2
	ldr	w0, [x29, 96]
	add	w19, w19, 1
.LVL1010:
	cmp	w0, w19
	ble	.L1004
.L1078:
	ldr	w0, [x21], 4
	.loc 1 3684 0
	rev	w0, w0
	bl	of_find_node_by_phandle
.LVL1011:
	.loc 1 3685 0
	cbnz	x0, .L1000
	.loc 1 3686 0
	adrp	x1, .LC41
	mov	x0, x22
	add	x1, x1, :lo12:.LC41
	.loc 1 3687 0
	mov	w25, -19
	.loc 1 3686 0
	bl	_dev_err
.LVL1012:
	.p2align 2
.L992:
	.loc 1 3762 0
	add	x23, x23, :lo12:__stack_chk_guard
	mov	w0, w25
.LVL1013:
	ldr	x2, [x29, 200]
	ldr	x1, [x23]
	eor	x1, x2, x1
	cbnz	x1, .L1095
	ldp	x19, x20, [sp, 16]
.LVL1014:
	ldp	x21, x22, [sp, 32]
.LVL1015:
	ldp	x23, x24, [sp, 48]
.LVL1016:
	ldp	x25, x26, [sp, 64]
.LVL1017:
	ldp	x27, x28, [sp, 80]
.LVL1018:
	ldp	x29, x30, [sp], 208
	.cfi_remember_state
	.cfi_restore 30
	.cfi_restore 29
	.cfi_restore 27
	.cfi_restore 28
	.cfi_restore 25
	.cfi_restore 26
	.cfi_restore 23
	.cfi_restore 24
	.cfi_restore 21
	.cfi_restore 22
	.cfi_restore 19
	.cfi_restore 20
	.cfi_def_cfa 31, 0
	ret
.LVL1019:
	.p2align 3
.L1094:
	.cfi_restore_state
	.loc 1 3699 0
	adrp	x1, .LC43
	mov	w2, w19
	add	x1, x1, :lo12:.LC43
	mov	x0, x22
	bl	_dev_info
.LVL1020:
.L999:
	.loc 1 3704 0
	ldr	x0, [x20, 16]
	cbz	x0, .L1004
	.loc 1 3710 0
	add	x19, x20, 192
.LVL1021:
	.loc 1 3712 0
	add	x21, x20, 24
.LVL1022:
	.loc 1 3710 0
	str	x22, [x19, 104]
.LBB1948:
.LBB1949:
.LBB1950:
.LBB1951:
.LBB1952:
	.file 13 "./include/linux/of.h"
	.loc 13 499 0
	adrp	x1, .LC45
.LBE1952:
.LBE1951:
.LBE1950:
.LBE1949:
.LBE1948:
	.loc 1 3712 0
	str	x22, [x20, 24]
.LBB2028:
.LBB2025:
.LBB1959:
.LBB1956:
.LBB1953:
	.loc 13 499 0
	mov	x4, 0
.LBE1953:
.LBE1956:
.LBE1959:
.LBE2025:
.LBE2028:
	.loc 1 3713 0
	ldr	x2, [x20, 8]
.LBB2029:
.LBB2026:
.LBB1960:
.LBB1957:
.LBB1954:
	.loc 13 499 0
	add	x1, x1, :lo12:.LC45
.LBE1954:
.LBE1957:
.LBE1960:
.LBE2026:
.LBE2029:
	.loc 1 3714 0
	stp	x2, x0, [x21, 8]
.LBB2030:
.LBB2027:
.LBB1961:
.LBB1958:
.LBB1955:
	.loc 13 499 0
	mov	x3, 1
	ldr	x0, [x22, 752]
	add	x2, x20, 100
	bl	of_property_read_variable_u32_array
.LVL1023:
	.loc 13 501 0
	tbnz	w0, #31, .L1006
.LBE1955:
.LBE1958:
.LBE1961:
.LBB1962:
.LBB1963:
.LBB1964:
	.loc 13 499 0
	ldr	x0, [x22, 752]
	adrp	x1, .LC79
	mov	x4, 0
	mov	x3, 1
	add	x2, x20, 104
	add	x1, x1, :lo12:.LC79
	bl	of_property_read_variable_u32_array
.LVL1024:
	.loc 13 501 0
	tbnz	w0, #31, .L1006
.LBE1964:
.LBE1963:
.LBE1962:
.LBB1965:
.LBB1966:
.LBB1967:
	.loc 13 499 0
	ldr	x0, [x22, 752]
	adrp	x1, .LC80
	mov	x4, 0
	mov	x3, 1
	add	x2, x20, 108
	add	x1, x1, :lo12:.LC80
	bl	of_property_read_variable_u32_array
.LVL1025:
	.loc 13 501 0
	tbnz	w0, #31, .L1006
.LBE1967:
.LBE1966:
.LBE1965:
.LBB1968:
.LBB1969:
.LBB1970:
	.loc 13 499 0
	ldr	x0, [x22, 752]
	adrp	x1, .LC81
	mov	x4, 0
	mov	x3, 1
	add	x2, x20, 112
	add	x1, x1, :lo12:.LC81
	bl	of_property_read_variable_u32_array
.LVL1026:
	.loc 13 501 0
	tbnz	w0, #31, .L1006
.LBE1970:
.LBE1969:
.LBE1968:
.LBB1971:
.LBB1972:
.LBB1973:
	.loc 13 499 0
	ldr	x0, [x22, 752]
	adrp	x1, .LC82
	mov	x4, 0
	mov	x3, 1
	add	x2, x20, 128
	add	x1, x1, :lo12:.LC82
	bl	of_property_read_variable_u32_array
.LVL1027:
	.loc 13 501 0
	tbnz	w0, #31, .L1006
.LBE1973:
.LBE1972:
.LBE1971:
.LBB1974:
.LBB1975:
.LBB1976:
	.loc 13 499 0
	ldr	x0, [x22, 752]
	adrp	x1, .LC83
	mov	x4, 0
	mov	x3, 1
	add	x2, x20, 132
	add	x1, x1, :lo12:.LC83
	bl	of_property_read_variable_u32_array
.LVL1028:
	.loc 13 501 0
	tbnz	w0, #31, .L1006
.LBE1976:
.LBE1975:
.LBE1974:
.LBB1977:
.LBB1978:
.LBB1979:
	.loc 13 499 0
	ldr	x0, [x22, 752]
	adrp	x1, .LC84
	mov	x4, 0
	mov	x3, 1
	add	x2, x20, 136
	add	x1, x1, :lo12:.LC84
	bl	of_property_read_variable_u32_array
.LVL1029:
	.loc 13 501 0
	tbnz	w0, #31, .L1006
.LBE1979:
.LBE1978:
.LBE1977:
.LBB1980:
.LBB1981:
.LBB1982:
	.loc 13 499 0
	ldr	x0, [x22, 752]
	adrp	x1, .LC85
	mov	x4, 0
	mov	x3, 1
	add	x2, x20, 140
	add	x1, x1, :lo12:.LC85
	bl	of_property_read_variable_u32_array
.LVL1030:
	.loc 13 501 0
	tbnz	w0, #31, .L1006
.LBE1982:
.LBE1981:
.LBE1980:
.LBB1983:
.LBB1984:
.LBB1985:
	.loc 13 499 0
	ldr	x0, [x22, 752]
	adrp	x1, .LC86
	mov	x4, 0
	mov	x3, 1
	add	x2, x20, 144
	add	x1, x1, :lo12:.LC86
	bl	of_property_read_variable_u32_array
.LVL1031:
	.loc 13 501 0
	tbnz	w0, #31, .L1006
.LBE1985:
.LBE1984:
.LBE1983:
.LBB1986:
.LBB1987:
.LBB1988:
	.loc 13 499 0
	ldr	x0, [x22, 752]
	adrp	x1, .LC87
	mov	x4, 0
	mov	x3, 1
	add	x2, x20, 148
	add	x1, x1, :lo12:.LC87
	bl	of_property_read_variable_u32_array
.LVL1032:
	.loc 13 501 0
	tbnz	w0, #31, .L1006
.LBE1988:
.LBE1987:
.LBE1986:
.LBB1989:
.LBB1990:
.LBB1991:
	.loc 13 499 0
	ldr	x0, [x22, 752]
	adrp	x1, .LC88
	mov	x4, 0
	mov	x3, 1
	add	x2, x20, 152
	add	x1, x1, :lo12:.LC88
	bl	of_property_read_variable_u32_array
.LVL1033:
	.loc 13 501 0
	tbnz	w0, #31, .L1006
.LBE1991:
.LBE1990:
.LBE1989:
.LBB1992:
.LBB1993:
.LBB1994:
	.loc 13 499 0
	ldr	x0, [x22, 752]
	adrp	x1, .LC89
	mov	x4, 0
	mov	x3, 1
	add	x2, x20, 156
	add	x1, x1, :lo12:.LC89
	bl	of_property_read_variable_u32_array
.LVL1034:
	.loc 13 501 0
	tbnz	w0, #31, .L1006
.LBE1994:
.LBE1993:
.LBE1992:
.LBB1995:
.LBB1996:
.LBB1997:
	.loc 13 499 0
	ldr	x0, [x22, 752]
	adrp	x1, .LC90
	mov	x4, 0
	mov	x3, 1
	add	x2, x20, 160
	add	x1, x1, :lo12:.LC90
	bl	of_property_read_variable_u32_array
.LVL1035:
	.loc 13 501 0
	tbnz	w0, #31, .L1006
.LBE1997:
.LBE1996:
.LBE1995:
.LBB1998:
.LBB1999:
.LBB2000:
	.loc 13 499 0
	ldr	x0, [x22, 752]
	adrp	x1, .LC91
	mov	x4, 0
	mov	x3, 1
	add	x2, x20, 164
	add	x1, x1, :lo12:.LC91
	bl	of_property_read_variable_u32_array
.LVL1036:
	.loc 13 501 0
	tbnz	w0, #31, .L1006
.LBE2000:
.LBE1999:
.LBE1998:
.LBB2001:
.LBB2002:
.LBB2003:
	.loc 13 499 0
	ldr	x0, [x22, 752]
	adrp	x1, .LC92
	mov	x4, 0
	mov	x3, 1
	add	x2, x20, 168
	add	x1, x1, :lo12:.LC92
	bl	of_property_read_variable_u32_array
.LVL1037:
	.loc 13 501 0
	tbnz	w0, #31, .L1006
.LBE2003:
.LBE2002:
.LBE2001:
.LBB2004:
.LBB2005:
.LBB2006:
	.loc 13 499 0
	ldr	x0, [x22, 752]
	adrp	x1, .LC93
	mov	x4, 0
	mov	x3, 1
	add	x2, x20, 172
	add	x1, x1, :lo12:.LC93
	bl	of_property_read_variable_u32_array
.LVL1038:
	.loc 13 501 0
	tbz	w0, #31, .L1042
.LBE2006:
.LBE2005:
.LBE2004:
	.loc 1 2923 0
	str	wzr, [x21, 148]
.L1042:
.LBB2007:
.LBB2008:
.LBB2009:
	.loc 13 499 0
	ldr	x0, [x22, 752]
	adrp	x1, .LC46
	mov	x4, 0
	mov	x3, 1
	add	x2, x20, 176
	add	x1, x1, :lo12:.LC46
	bl	of_property_read_variable_u32_array
.LVL1039:
	.loc 13 501 0
	tbz	w0, #31, .L1043
.LBE2009:
.LBE2008:
.LBE2007:
	.loc 1 2926 0
	str	wzr, [x21, 152]
.L1043:
.LBB2010:
.LBB2011:
.LBB2012:
	.loc 13 499 0
	ldr	x0, [x22, 752]
	adrp	x1, .LC47
	mov	x4, 0
	mov	x3, 1
	add	x2, x20, 180
	add	x1, x1, :lo12:.LC47
	bl	of_property_read_variable_u32_array
.LVL1040:
	.loc 13 501 0
	tbz	w0, #31, .L1044
.LBE2012:
.LBE2011:
.LBE2010:
	.loc 1 2929 0
	str	wzr, [x21, 156]
.L1044:
.LBB2013:
.LBB2014:
.LBB2015:
	.loc 13 499 0
	ldr	x0, [x22, 752]
	adrp	x1, .LC48
	mov	x4, 0
	mov	x3, 1
	add	x2, x20, 116
	add	x1, x1, :lo12:.LC48
	bl	of_property_read_variable_u32_array
.LVL1041:
	.loc 13 501 0
	tbz	w0, #31, .L1045
.LBE2015:
.LBE2014:
.LBE2013:
	.loc 1 2932 0
	str	wzr, [x21, 92]
.L1045:
.LBB2016:
.LBB2017:
.LBB2018:
	.loc 13 499 0
	ldr	x0, [x22, 752]
	adrp	x1, .LC49
	mov	x4, 0
	mov	x3, 1
	add	x2, x20, 120
	add	x1, x1, :lo12:.LC49
	bl	of_property_read_variable_u32_array
.LVL1042:
	.loc 13 501 0
	tbz	w0, #31, .L1046
.LBE2018:
.LBE2017:
.LBE2016:
	.loc 1 2935 0
	str	wzr, [x21, 96]
.L1046:
.LBB2019:
.LBB2020:
.LBB2021:
	.loc 13 499 0
	ldr	x0, [x22, 752]
	adrp	x1, .LC50
	mov	x4, 0
	mov	x3, 1
	add	x2, x20, 184
	add	x1, x1, :lo12:.LC50
	bl	of_property_read_variable_u32_array
.LVL1043:
	.loc 13 501 0
	tbz	w0, #31, .L1047
.LBE2021:
.LBE2020:
.LBE2019:
	.loc 1 2938 0
	str	wzr, [x21, 160]
.L1047:
.LBB2022:
.LBB2023:
.LBB2024:
	.loc 13 499 0
	ldr	x0, [x22, 752]
	adrp	x1, .LC51
	mov	x4, 0
	mov	x3, 1
	add	x2, x20, 188
	add	x1, x1, :lo12:.LC51
	bl	of_property_read_variable_u32_array
.LVL1044:
	.loc 13 501 0
	tbz	w0, #31, .L1048
.LBE2024:
.LBE2023:
.LBE2022:
	.loc 1 2941 0
	str	wzr, [x21, 164]
.L1048:
.LBE2027:
.LBE2030:
	.loc 1 3722 0
	ldr	w0, [x21, 88]
	str	w0, [x19, 92]
	.loc 1 3723 0
	ldr	w1, [x21, 84]
	str	w1, [x19, 96]
	.loc 1 3724 0
	mul	w0, w0, w1
	str	w0, [x19, 28]
.LBB2031:
.LBB2032:
	.loc 1 3404 0
	cmp	w0, 5242880
.LBE2032:
.LBE2031:
	.loc 1 3725 0
	lsr	w0, w0, 2
	str	w0, [x19, 32]
.LBB2044:
.LBB2037:
	.loc 1 3395 0
	ldr	x26, [x20]
.LVL1045:
	.loc 1 3404 0
	bgt	.L1096
	.loc 1 3410 0
	ldr	x0, [x26, 752]
	adrp	x1, .LC53
	mov	w2, 0
	add	x1, x1, :lo12:.LC53
	bl	of_parse_phandle
.LVL1046:
	.loc 1 3411 0
	cbz	x0, .L1055
	.loc 1 3414 0
	add	x2, x29, 104
	mov	w1, 0
	bl	of_address_to_resource
.LVL1047:
	mov	w25, w0
	.loc 1 3416 0
	cbnz	w0, .L1097
.LBB2033:
.LBB2034:
	.file 14 "./include/linux/ioport.h"
	.loc 14 204 0
	ldp	x1, x2, [x29, 104]
.LBE2034:
.LBE2033:
	.loc 1 3421 0
	str	x1, [x20, 192]
	.loc 1 3423 0
	mov	w0, 53477375
.LBB2036:
.LBB2035:
	.loc 14 204 0
	add	x2, x2, 1
	sub	x2, x2, x1
.LBE2035:
.LBE2036:
	.loc 1 3422 0
	str	w2, [x19, 24]
	.loc 1 3423 0
	cmp	w2, w0
	ble	.L1098
	.loc 1 3427 0
	sxtw	x2, w2
	mov	x3, 1
	mov	x0, x26
	bl	devm_memremap
.LVL1048:
	str	x0, [x19, 8]
	.loc 1 3429 0
	cbz	x0, .L1099
	.loc 1 3438 0
	mov	x1, x0
	ldr	w2, [x19, 24]
	ldr	x0, [x20, 192]
	mov	w4, 4
	mov	w3, 5242880
	bl	ebc_buf_init
.LVL1049:
	.loc 1 3439 0
	cbnz	w0, .L1056
	.loc 1 3442 0
	ldr	x1, [x19, 8]
	mov	x0, 20971520
	.loc 1 3447 0
	mov	x4, 2097152
	.loc 1 3446 0
	mov	x2, 26214400
	.loc 1 3442 0
	add	x0, x1, x0
	str	x0, [x19, 16]
	.loc 1 3447 0
	str	x4, [x21, 40]
	.loc 1 3446 0
	add	x6, x1, x2
	str	x6, [x21, 24]
	mov	x5, 28311552
	add	x3, x1, x5
	.loc 1 3448 0
	ldr	x0, [x20, 192]
	add	x2, x0, x2
	str	x2, [x21, 32]
	.loc 1 3449 0
	str	x6, [x19, 184]
	.loc 1 3448 0
	add	x0, x0, x5
	.loc 1 3447 0
	str	x4, [x21, 64]
	.loc 1 3454 0
	mov	x2, 35651584
	.loc 1 3448 0
	stp	x3, x0, [x21, 48]
	.loc 1 3454 0
	add	x2, x1, x2
	.loc 1 3453 0
	mov	x0, 30408704
	add	x0, x1, x0
	.loc 1 3454 0
	stp	x0, x2, [x19, 152]
	.loc 1 3457 0
	mov	x0, 40894464
	.loc 1 3461 0
	mov	x2, 51380224
	.loc 1 3457 0
	add	x0, x1, x0
	.loc 1 3461 0
	add	x2, x1, x2
	.loc 1 3449 0
	str	x3, [x19, 192]
	.loc 1 3461 0
	str	x2, [x19, 128]
	.loc 1 3462 0
	mov	x2, 52428800
	.loc 1 3457 0
	str	x0, [x19, 168]
	.loc 1 3458 0
	mov	x0, 46137344
	add	x0, x1, x0
	.loc 1 3462 0
	add	x1, x1, x2
	.loc 1 3458 0
	str	x0, [x19, 176]
	.loc 1 3462 0
	str	x1, [x19, 136]
	.loc 1 3464 0
	ldp	w2, w1, [x21, 84]
	mul	w2, w2, w1
	mov	w1, 0
	bl	memset
.LVL1050:
	.loc 1 3465 0
	ldp	w3, w2, [x21, 84]
	mov	w1, 0
	ldr	x0, [x19, 168]
	mul	w2, w3, w2
	bl	memset
.LVL1051:
.LBE2037:
.LBE2044:
.LBB2045:
.LBB2046:
	.loc 1 3352 0
	ldr	x26, [x19, 104]
.LVL1052:
	.loc 1 3358 0
	adrp	x1, .LC57
	mov	w2, 0
	add	x1, x1, :lo12:.LC57
	ldr	x0, [x26, 752]
	bl	of_parse_phandle
.LVL1053:
	.loc 1 3359 0
	cbz	x0, .L1057
	.loc 1 3362 0
	add	x2, x29, 104
	mov	w1, 0
	bl	of_address_to_resource
.LVL1054:
	mov	w25, w0
	.loc 1 3364 0
	cbz	w0, .L1100
.L1018:
.LBE2046:
.LBE2045:
	.loc 1 3737 0
	adrp	x1, .LC95
	mov	x0, x22
	add	x1, x1, :lo12:.LC95
	bl	_dev_err
.LVL1055:
	.loc 1 3738 0
	b	.L992
.LVL1056:
	.p2align 3
.L1006:
	.loc 1 3720 0
	mov	w25, -22
	.loc 1 3719 0
	adrp	x1, .LC99
	mov	w2, w25
	add	x1, x1, :lo12:.LC99
	mov	x0, x22
	bl	_dev_err
.LVL1057:
	.loc 1 3720 0
	b	.L992
.LVL1058:
	.p2align 3
.L1093:
	.loc 1 3693 0
	adrp	x1, .LC42
	mov	x0, x22
.LVL1059:
	add	x1, x1, :lo12:.LC42
	.loc 1 3694 0
	mov	w25, -19
	.loc 1 3693 0
	bl	_dev_err
.LVL1060:
	.loc 1 3694 0
	b	.L992
.LVL1061:
	.p2align 3
.L1004:
	.loc 1 3705 0
	adrp	x1, .LC44
	mov	x0, x22
	add	x1, x1, :lo12:.LC44
	.loc 1 3706 0
	mov	w25, -517
	.loc 1 3705 0
	bl	_dev_err
.LVL1062:
	.loc 1 3706 0
	b	.L992
.LVL1063:
.L1100:
.LBB2055:
.LBB2051:
	.loc 1 3373 0
	mov	x0, x26
	mov	x3, 1
.LBB2047:
.LBB2048:
	.loc 14 204 0
	ldp	x1, x26, [x29, 104]
.LVL1064:
.LBE2048:
.LBE2047:
	.loc 1 3370 0
	str	x1, [x19, 40]
.LBB2050:
.LBB2049:
	.loc 14 204 0
	add	x26, x26, 1
	sub	x26, x26, x1
.LBE2049:
.LBE2050:
	.loc 1 3371 0
	str	w26, [x19, 48]
	.loc 1 3373 0
	sxtw	x2, w26
	bl	devm_memremap
.LVL1065:
	str	x0, [x19, 208]
	.loc 1 3375 0
	cbz	x0, .L1101
	.loc 1 3380 0
	bl	epd_lut_from_mem_init
.LVL1066:
	.loc 1 3381 0
	tbnz	w0, #31, .L1102
.L1020:
.LBE2051:
.LBE2055:
.LBB2056:
.LBB2057:
	.loc 1 3474 0
	add	x24, x24, :lo12:.LANCHOR0
	.loc 1 3472 0
	mov	w26, 99
	.loc 1 3474 0
	adrp	x3, .LC96
	adrp	x0, ebc_auto_tast_function
	add	x3, x3, :lo12:.LC96
	add	x0, x0, :lo12:ebc_auto_tast_function
	mov	w2, -1
	mov	x1, x19
	.loc 1 3472 0
	str	w26, [x29, 104]
	.loc 1 3474 0
	bl	kthread_create_on_node
.LVL1067:
	str	x0, [x24, 8]
	.loc 1 3475 0
	cmn	x0, #4096
	bhi	.L1103
	.loc 1 3479 0
	add	x2, x29, 104
	mov	w1, 1
	bl	sched_setscheduler_nocheck
.LVL1068:
	.loc 1 3480 0
	ldr	x2, [x24, 8]
.LBB2058:
.LBB2059:
	.file 15 "./arch/arm64/include/asm/atomic_lse.h"
	.loc 15 47 0
	mov	w0, 1
.LVL1069:
	add	x1, x2, 48
.LVL1070:
#APP
// 47 "./arch/arm64/include/asm/atomic_lse.h" 1
	.arch_extension lse
.if 1 == 1
661:
	bl	__ll_sc_atomic_add

662:
.pushsection .altinstructions,"a"
 .word 661b - .
 .word 663f - .
 .hword 5
 .byte 662b-661b
 .byte 664f-663f
.popsection
.pushsection .altinstr_replacement, "a"
663:
	.arch_extension lse
	stadd	w0, [x1]

664:
	.popsection
	.org	. - (664b-663b) + (662b-661b)
	.org	. - (662b-661b) + (664b-663b)
.endif

// 0 "" 2
.LVL1071:
#NO_APP
.LBE2059:
.LBE2058:
	.loc 1 3483 0
	adrp	x3, .LC62
	adrp	x0, ebc_auto_assist_tast_function
.LVL1072:
	add	x3, x3, :lo12:.LC62
	add	x0, x0, :lo12:ebc_auto_assist_tast_function
	mov	w2, -1
	mov	x1, x19
	bl	kthread_create_on_node
.LVL1073:
	str	x0, [x24, 16]
	.loc 1 3484 0
	cmn	x0, #4096
	bhi	.L1104
	.loc 1 3488 0
	add	x2, x29, 104
	mov	w1, 1
	bl	sched_setscheduler_nocheck
.LVL1074:
	.loc 1 3489 0
	ldr	x2, [x24, 16]
.LBB2060:
.LBB2061:
	.loc 15 47 0
	mov	w0, 1
.LVL1075:
	add	x1, x2, 48
.LVL1076:
#APP
// 47 "./arch/arm64/include/asm/atomic_lse.h" 1
	.arch_extension lse
.if 1 == 1
661:
	bl	__ll_sc_atomic_add

662:
.pushsection .altinstructions,"a"
 .word 661b - .
 .word 663f - .
 .hword 5
 .byte 662b-661b
 .byte 664f-663f
.popsection
.pushsection .altinstr_replacement, "a"
663:
	.arch_extension lse
	stadd	w0, [x1]

664:
	.popsection
	.org	. - (664b-663b) + (662b-661b)
	.org	. - (662b-661b) + (664b-663b)
.endif

// 0 "" 2
.LVL1077:
#NO_APP
.LBE2061:
.LBE2060:
	.loc 1 3490 0
	ldr	x0, [x19, 104]
.LVL1078:
	adrp	x1, .LC64
	add	x1, x1, :lo12:.LC64
	bl	_dev_info
.LVL1079:
	.loc 1 3493 0
	str	w26, [x29, 104]
.LBB2062:
	.loc 1 3494 0
	adrp	x3, .LC65
	adrp	x0, ebc_thread
	add	x3, x3, :lo12:.LC65
	add	x0, x0, :lo12:ebc_thread
	mov	w2, -1
	mov	x1, x19
	bl	kthread_create_on_node
.LVL1080:
	mov	x26, x0
.LVL1081:
	cmn	x0, #4096
	bhi	.L1023
	bl	wake_up_process
.LVL1082:
.LBE2062:
	str	x26, [x24, 24]
	.loc 1 3499 0
	add	x2, x29, 104
	mov	x0, x26
	mov	w1, 1
	bl	sched_setscheduler_nocheck
.LVL1083:
	.loc 1 3500 0
	ldr	x2, [x24, 24]
.LBB2063:
.LBB2064:
	.loc 15 47 0
	mov	w0, 1
.LVL1084:
	add	x1, x2, 48
.LVL1085:
#APP
// 47 "./arch/arm64/include/asm/atomic_lse.h" 1
	.arch_extension lse
.if 1 == 1
661:
	bl	__ll_sc_atomic_add

662:
.pushsection .altinstructions,"a"
 .word 661b - .
 .word 663f - .
 .hword 5
 .byte 662b-661b
 .byte 664f-663f
.popsection
.pushsection .altinstr_replacement, "a"
663:
	.arch_extension lse
	stadd	w0, [x1]

664:
	.popsection
	.org	. - (664b-663b) + (662b-661b)
	.org	. - (662b-661b) + (664b-663b)
.endif

// 0 "" 2
.LVL1086:
#NO_APP
.LBE2064:
.LBE2063:
.LBE2057:
.LBE2056:
.LBB2068:
.LBB2069:
	.loc 1 3509 0
	mov	w1, -1
	.loc 1 3510 0
	stp	w1, wzr, [x19, 84]
	.loc 1 3521 0
	add	x1, x19, 512
.LBB2070:
.LBB2071:
	.loc 11 39 0
	add	x0, x20, 448
.LVL1087:
.LBE2071:
.LBE2070:
	.loc 1 3514 0
	str	wzr, [x19, 52]
	.loc 1 3516 0
	mov	w27, 1
	.loc 1 3515 0
	str	wzr, [x19, 68]
	.loc 1 3528 0
	add	x24, x20, 664
	.loc 1 3513 0
	str	wzr, [x19, 100]
	.loc 1 3529 0
	adrp	x26, jiffies
.LVL1088:
	.loc 1 3508 0
	str	wzr, [x19, 200]
	.loc 1 3529 0
	mov	x28, 268435455
	.loc 1 3516 0
	stp	wzr, w27, [x19, 248]
	.loc 1 3511 0
	str	wzr, [x19, 584]
	.loc 1 3512 0
	str	wzr, [x19, 588]
	.loc 1 3521 0
	stp	w27, w27, [x1, 88]
	stp	w27, wzr, [x1, 96]
.LBB2073:
.LBB2072:
	.loc 11 43 0
	adrp	x1, .LC66
	.loc 11 42 0
	stp	xzr, xzr, [x0]
	.loc 11 43 0
	add	x1, x1, :lo12:.LC66
	.loc 11 42 0
	stp	xzr, xzr, [x0, 16]
	stp	xzr, xzr, [x0, 32]
	stp	xzr, xzr, [x0, 48]
	stp	xzr, xzr, [x0, 64]
	stp	xzr, xzr, [x0, 80]
	stp	xzr, xzr, [x0, 96]
	stp	xzr, xzr, [x0, 112]
	stp	xzr, xzr, [x0, 128]
	stp	xzr, xzr, [x0, 144]
	stp	xzr, xzr, [x0, 160]
	stp	xzr, xzr, [x0, 176]
	stp	xzr, xzr, [x0, 192]
	.loc 11 43 0
	str	x1, [x20, 448]
	.loc 11 45 0
	bl	wakeup_source_add
.LVL1089:
.LBE2072:
.LBE2073:
	.loc 1 3525 0
	str	wzr, [x19, 464]
	.loc 1 3528 0
	mov	x4, 0
	mov	x3, 0
	mov	w2, 0
	mov	x0, x24
	adrp	x1, ebc_frame_control_timeout
	add	x1, x1, :lo12:ebc_frame_control_timeout
	bl	init_timer_key
.LVL1090:
	.loc 1 3529 0
	ldr	x1, [x26, #:lo12:jiffies]
	mov	x0, x24
	.loc 1 3532 0
	add	x24, x20, 720
	.loc 1 3529 0
	add	x1, x1, x28
	bl	mod_timer
.LVL1091:
	.loc 1 3532 0
	mov	x4, 0
	mov	x3, 0
	mov	w2, 0
	mov	x0, x24
	adrp	x1, ebc_frame_timeout
	add	x1, x1, :lo12:ebc_frame_timeout
	bl	init_timer_key
.LVL1092:
	.loc 1 3533 0
	ldr	x1, [x26, #:lo12:jiffies]
	mov	x0, x24
	add	x1, x1, x28
	bl	mod_timer
.LVL1093:
.LBE2069:
.LBE2068:
.LBB2074:
.LBB2075:
	.loc 1 3555 0
	adrp	x0, saved_command_line
	adrp	x1, .LC67
	.loc 1 3552 0
	stp	wzr, wzr, [x29, 100]
.LVL1094:
	.loc 1 3555 0
	add	x1, x1, :lo12:.LC67
	ldr	x24, [x0, #:lo12:saved_command_line]
	mov	x0, x24
	bl	strstr
.LVL1095:
	.loc 1 3556 0
	adrp	x1, .LC68
	.loc 1 3555 0
	mov	x26, x0
.LVL1096:
	.loc 1 3556 0
	add	x1, x1, :lo12:.LC68
	mov	x0, x24
	bl	strstr
.LVL1097:
	mov	x24, x0
.LVL1098:
	.loc 1 3561 0
	cbz	x26, .L1024
	.loc 1 3562 0
	add	x2, x29, 100
	mov	x0, x26
	adrp	x1, .LC69
	add	x1, x1, :lo12:.LC69
	bl	sscanf
.LVL1099:
	.loc 1 3563 0
	ldr	w2, [x29, 100]
	ldr	x0, [x20, 192]
	cmp	x0, x2, uxtw
	bls	.L1105
.L1024:
	.loc 1 3575 0
	mov	w26, 0
.LVL1100:
	mov	x28, 0
.LVL1101:
	.loc 1 3559 0
	mov	x27, 0
.LVL1102:
	.loc 1 3575 0
	cbz	x24, .L1052
.L1051:
	.loc 1 3576 0
	add	x2, x29, 104
	mov	x0, x24
	adrp	x1, .LC72
	add	x1, x1, :lo12:.LC72
	bl	sscanf
.LVL1103:
	.loc 1 3554 0
	mov	w24, 0
.LVL1104:
	.loc 1 3577 0
	ldr	w2, [x29, 104]
	.loc 1 3559 0
	mov	x27, 0
	.loc 1 3577 0
	ldr	x0, [x20, 192]
	cmp	x0, x2, uxtw
	bls	.L1106
.L1028:
	.loc 1 3589 0
	cbnz	w26, .L1027
.LVL1105:
.L1052:
	.loc 1 3590 0
	ldr	x0, [x19, 104]
	adrp	x1, .LC75
	add	x1, x1, :lo12:.LC75
	bl	_dev_info
.LVL1106:
	.loc 1 3591 0
	ldr	x0, [x20, 16]
	bl	ebc_pmic_verity_vcom
.LVL1107:
.LBB2076:
.LBB2077:
	.loc 1 2844 0
	adrp	x0, .LC76
	add	x0, x0, :lo12:.LC76
	bl	ebc_empty_buf_get
.LVL1108:
	mov	x26, x0
.LVL1109:
	.loc 1 2845 0
	ldp	w2, w0, [x20, 108]
	mov	w1, 240
	mul	w2, w2, w0
	ldr	x0, [x26, 16]
	bl	memset
.LVL1110:
	.loc 1 2848 0
	stp	wzr, wzr, [x26, 48]
	.loc 1 2846 0
	mov	w0, 17
	str	w0, [x26, 40]
	.loc 1 2851 0
	mov	w2, 1
	.loc 1 2852 0
	mov	x0, x26
	.loc 1 2849 0
	ldr	w1, [x20, 108]
	str	w1, [x26, 56]
	.loc 1 2850 0
	ldr	w1, [x20, 112]
	.loc 1 2851 0
	stp	w1, w2, [x26, 60]
	.loc 1 2852 0
	bl	ebc_add_to_dsp_buf_list
.LVL1111:
.L1030:
.LBE2077:
.LBE2076:
	.loc 1 3609 0
	cbnz	w24, .L1107
.L1035:
	.loc 1 3623 0
	ldr	w0, [x19, 100]
	adrp	x21, .LANCHOR1
	cbz	w0, .L1108
.L1040:
	.loc 1 3628 0
	cbz	x28, .L1041
	.loc 1 3629 0
	mov	x0, x28
	bl	kfree
.LVL1112:
.L1041:
	.loc 1 3630 0
	cbz	x27, .L1026
	.loc 1 3631 0
	mov	x0, x27
	bl	kfree
.LVL1113:
.L1026:
.LBE2075:
.LBE2074:
.LBB2095:
.LBB2096:
.LBB2097:
	.loc 2 1186 0
	str	x20, [x22, 184]
.LBE2097:
.LBE2096:
.LBE2095:
.LBB2098:
.LBB2099:
	.loc 1 3334 0
	add	x21, x21, :lo12:.LANCHOR1
	add	x0, x21, 224
	bl	misc_register
.LVL1114:
	.loc 1 3335 0
	add	x0, x21, 376
	bl	misc_register
.LVL1115:
	.loc 1 3337 0
	ldr	x0, [x20, 296]
	add	x1, x21, 456
	bl	device_create_file
.LVL1116:
	.loc 1 3338 0
	ldr	x0, [x20, 296]
	add	x1, x21, 488
	bl	device_create_file
.LVL1117:
	.loc 1 3339 0
	ldr	x0, [x20, 296]
	add	x1, x21, 520
	bl	device_create_file
.LVL1118:
	.loc 1 3340 0
	ldr	x0, [x20, 296]
	add	x1, x21, 552
	bl	device_create_file
.LVL1119:
	.loc 1 3341 0
	ldr	x0, [x20, 296]
	add	x1, x21, 584
	bl	device_create_file
.LVL1120:
	.loc 1 3342 0
	ldr	x0, [x20, 296]
	add	x1, x21, 616
	bl	device_create_file
.LVL1121:
	.loc 1 3343 0
	ldr	x0, [x20, 296]
	add	x1, x21, 648
	bl	device_create_file
.LVL1122:
	.loc 1 3344 0
	ldr	x0, [x20, 296]
	add	x1, x21, 680
	bl	device_create_file
.LVL1123:
.LBE2099:
.LBE2098:
	.loc 1 3759 0
	ldr	x0, [x19, 104]
	adrp	x2, .LC26
	adrp	x1, .LC78
	add	x2, x2, :lo12:.LC26
	add	x1, x1, :lo12:.LC78
	bl	_dev_info
.LVL1124:
	.loc 1 3761 0
	b	.L992
.LVL1125:
.L1097:
.LBB2100:
.LBB2038:
	.loc 1 3417 0
	adrp	x1, .LC54
	mov	x0, x26
	add	x1, x1, :lo12:.LC54
	bl	_dev_err
.LVL1126:
.L1014:
.LBE2038:
.LBE2100:
	.loc 1 3730 0
	adrp	x1, .LC94
	mov	x0, x22
	add	x1, x1, :lo12:.LC94
	bl	_dev_err
.LVL1127:
	.loc 1 3731 0
	b	.L992
.LVL1128:
.L1108:
.LBB2101:
.LBB2092:
	.loc 1 3624 0
	mov	w2, 1
	str	w2, [x19, 100]
	.loc 1 3625 0
	add	x0, x21, :lo12:.LANCHOR1
	mov	w1, w2
	add	x0, x0, 304
	bl	__wake_up_sync
.LVL1129:
	b	.L1040
.LVL1130:
.L1105:
	.loc 1 3565 0
	ldr	x0, [x19, 104]
	adrp	x1, .LC70
	add	x1, x1, :lo12:.LC70
	bl	_dev_info
.LVL1131:
	.loc 1 3566 0
	ldp	w0, w1, [x21, 84]
	mul	w0, w0, w1
.LBB2078:
.LBB2079:
.LBB2080:
	.file 16 "./include/linux/slab.h"
	.loc 16 553 0
	mov	w1, 32960
	movk	w1, 0x60, lsl 16
	lsr	w0, w0, 1
	bl	__kmalloc
.LVL1132:
	mov	x28, x0
.LVL1133:
.LBE2080:
.LBE2079:
.LBE2078:
	.loc 1 3567 0
	cbz	x0, .L1109
	.loc 1 3571 0
	ldp	w2, w1, [x21, 84]
	ldr	x3, [x20, 192]
	mul	w2, w2, w1
	ldr	w1, [x29, 100]
.LVL1134:
	sub	x1, x1, x3
.LVL1135:
	ldr	x3, [x19, 8]
	lsr	w2, w2, 1
	add	x1, x3, x1
	bl	memcpy
.LVL1136:
	.loc 1 3575 0
	cbnz	x24, .L1110
	.loc 1 3554 0
	mov	w24, 0
.LVL1137:
	.loc 1 3559 0
	mov	x27, 0
.LVL1138:
.L1027:
	.loc 1 3596 0
	adrp	x0, .LC77
	add	x0, x0, :lo12:.LC77
	bl	ebc_empty_buf_get
.LVL1139:
	mov	x5, x0
	.loc 1 3597 0
	cbz	x0, .L1030
	.loc 1 3598 0
	ldp	w4, w0, [x21, 84]
.LBB2081:
.LBB2082:
	.loc 1 3541 0
	mov	x1, 0
	ldr	x2, [x5, 16]
.LVL1140:
.LBE2082:
.LBE2081:
	.loc 1 3598 0
	mul	w4, w4, w0
	lsr	w4, w4, 1
.LBB2084:
.LBB2083:
	.loc 1 3541 0
	cbz	w4, .L1033
	.p2align 2
.L1077:
	.loc 1 3542 0
	ldrb	w0, [x28, x1]
.LVL1141:
	add	x1, x1, 1
	.loc 1 3541 0
	cmp	w4, w1
	.loc 1 3544 0
	and	w3, w0, -16
	.loc 1 3543 0
	lsl	w0, w0, 4
.LVL1142:
	strb	w0, [x2], 2
	.loc 1 3544 0
	strb	w3, [x2, -1]
	.loc 1 3541 0
	bgt	.L1077
.L1033:
.LBE2083:
.LBE2084:
	.loc 1 3601 0
	stp	wzr, wzr, [x5, 48]
	.loc 1 3599 0
	mov	w0, 7
	str	w0, [x5, 40]
	.loc 1 3604 0
	mov	w2, 1
.LVL1143:
	.loc 1 3605 0
	mov	x0, x5
	.loc 1 3602 0
	ldr	w1, [x21, 84]
	str	w1, [x5, 56]
	.loc 1 3603 0
	ldr	w1, [x21, 88]
	.loc 1 3604 0
	stp	w1, w2, [x5, 60]
	.loc 1 3605 0
	bl	ebc_add_to_dsp_buf_list
.LVL1144:
	b	.L1030
.LVL1145:
.L1106:
	.loc 1 3579 0
	ldr	x0, [x19, 104]
	adrp	x1, .LC73
	add	x1, x1, :lo12:.LC73
	bl	_dev_info
.LVL1146:
	.loc 1 3580 0
	ldp	w0, w1, [x21, 84]
	mul	w0, w0, w1
.LBB2085:
.LBB2086:
.LBB2087:
	.loc 16 553 0
	mov	w1, 32960
	movk	w1, 0x60, lsl 16
	lsr	w0, w0, 1
	bl	__kmalloc
.LVL1147:
	mov	x27, x0
.LBE2087:
.LBE2086:
.LBE2085:
	.loc 1 3581 0
	cbz	x0, .L1111
	.loc 1 3585 0
	ldp	w2, w1, [x21, 84]
	.loc 1 3578 0
	mov	w24, 1
	.loc 1 3585 0
	ldr	x3, [x20, 192]
	mul	w2, w2, w1
	ldr	w1, [x29, 104]
.LVL1148:
	sub	x1, x1, x3
.LVL1149:
	ldr	x3, [x19, 8]
	lsr	w2, w2, 1
	add	x1, x3, x1
	bl	memcpy
.LVL1150:
	b	.L1028
.LVL1151:
.L996:
.LBE2092:
.LBE2101:
	.loc 1 3668 0
	mov	w25, -517
	b	.L992
.LVL1152:
.L1107:
.LBB2102:
.LBB2093:
	.loc 1 3610 0
	adrp	x0, .LC77
	add	x0, x0, :lo12:.LC77
	bl	ebc_empty_buf_get
.LVL1153:
	.loc 1 3611 0
	cbz	x0, .L1035
	.loc 1 3612 0
	ldp	w5, w1, [x21, 84]
.LBB2088:
.LBB2089:
	.loc 1 3541 0
	mov	x2, 0
	ldr	x3, [x0, 16]
.LVL1154:
.LBE2089:
.LBE2088:
	.loc 1 3612 0
	mul	w5, w5, w1
	lsr	w5, w5, 1
.LBB2091:
.LBB2090:
	.loc 1 3541 0
	cbz	w5, .L1039
	.p2align 2
.L1076:
	.loc 1 3542 0
	ldrb	w1, [x27, x2]
.LVL1155:
	add	x2, x2, 1
	.loc 1 3541 0
	cmp	w5, w2
	.loc 1 3544 0
	and	w4, w1, -16
	.loc 1 3543 0
	lsl	w1, w1, 4
.LVL1156:
	strb	w1, [x3], 2
	.loc 1 3544 0
	strb	w4, [x3, -1]
	.loc 1 3541 0
	bgt	.L1076
.L1039:
.LBE2090:
.LBE2091:
	.loc 1 3613 0
	mov	w1, 7
	.loc 1 3615 0
	stp	wzr, wzr, [x0, 48]
	.loc 1 3613 0
	str	w1, [x0, 40]
	.loc 1 3618 0
	mov	w2, 1
	.loc 1 3616 0
	ldr	w1, [x21, 84]
	str	w1, [x0, 56]
	.loc 1 3617 0
	ldr	w1, [x21, 88]
	.loc 1 3618 0
	stp	w1, w2, [x0, 60]
	.loc 1 3619 0
	bl	ebc_add_to_dsp_buf_list
.LVL1157:
	b	.L1035
.LVL1158:
.L1054:
.LBE2093:
.LBE2102:
	.loc 1 3654 0
	mov	w25, -12
	b	.L992
.LVL1159:
.L997:
	.loc 1 3678 0
	adrp	x1, .LC40
	mov	x0, x22
	add	x1, x1, :lo12:.LC40
	.loc 1 3679 0
	mov	w25, -22
	.loc 1 3678 0
	bl	_dev_err
.LVL1160:
	.loc 1 3679 0
	b	.L992
.LVL1161:
.L1102:
.LBB2103:
.LBB2052:
	.loc 1 3382 0
	ldr	x0, [x19, 104]
	adrp	x1, .LC59
	add	x1, x1, :lo12:.LC59
	bl	_dev_err
.LVL1162:
	.loc 1 3383 0
	ldr	x0, [x19, 104]
	mov	w2, w26
	ldr	x1, [x19, 208]
	bl	epd_lut_from_file_init
.LVL1163:
	.loc 1 3384 0
	tbz	w0, #31, .L1020
	.loc 1 3385 0
	ldr	x0, [x19, 104]
	adrp	x1, .LC60
	.loc 1 3386 0
	mov	w25, -1
	.loc 1 3385 0
	add	x1, x1, :lo12:.LC60
	bl	_dev_err
.LVL1164:
	b	.L1018
.LVL1165:
	.p2align 3
.L1096:
.LBE2052:
.LBE2103:
.LBB2104:
.LBB2039:
	.loc 1 3405 0
	adrp	x1, .LC52
	mov	x0, x26
	add	x1, x1, :lo12:.LC52
	.loc 1 3406 0
	mov	w25, -19
	.loc 1 3405 0
	bl	_dev_err
.LVL1166:
	b	.L1014
.LVL1167:
.L1103:
.LBE2039:
.LBE2104:
.LBB2105:
.LBB2065:
	.loc 1 3476 0
	ldr	x0, [x19, 104]
	adrp	x1, .LC61
	add	x1, x1, :lo12:.LC61
	bl	_dev_err
.LVL1168:
.L1021:
.LBE2065:
.LBE2105:
	.loc 1 3744 0
	adrp	x1, .LC98
	mov	x0, x22
	add	x1, x1, :lo12:.LC98
	.loc 1 3745 0
	mov	w25, -1
	.loc 1 3744 0
	bl	_dev_err
.LVL1169:
	.loc 1 3745 0
	b	.L992
.LVL1170:
.L1104:
.LBB2106:
.LBB2066:
	.loc 1 3485 0
	ldr	x0, [x19, 104]
	adrp	x1, .LC63
	add	x1, x1, :lo12:.LC63
	bl	_dev_err
.LVL1171:
	b	.L1021
.LVL1172:
.L1056:
.LBE2066:
.LBE2106:
.LBB2107:
.LBB2040:
	.loc 1 3440 0
	mov	w25, -12
	b	.L1014
.LVL1173:
.L1023:
.LBE2040:
.LBE2107:
.LBB2108:
.LBB2067:
	.loc 1 3496 0
	ldr	x0, [x19, 104]
.LVL1174:
	adrp	x1, .LC97
	.loc 1 3494 0
	str	x26, [x24, 24]
	.loc 1 3496 0
	add	x1, x1, :lo12:.LC97
	bl	_dev_err
.LVL1175:
	b	.L1021
.LVL1176:
.L1098:
.LBE2067:
.LBE2108:
.LBB2109:
.LBB2041:
	.loc 1 3424 0
	adrp	x1, .LC55
	mov	w2, 53477376
	add	x1, x1, :lo12:.LC55
	mov	x0, x26
	.loc 1 3425 0
	mov	w25, -19
	.loc 1 3424 0
	bl	_dev_err
.LVL1177:
	b	.L1014
.LVL1178:
.L1092:
.LBE2041:
.LBE2109:
	.loc 1 3661 0
	adrp	x1, .LC38
	mov	x0, x22
	add	x1, x1, :lo12:.LC38
	.loc 1 3662 0
	mov	w25, -19
	.loc 1 3661 0
	bl	_dev_err
.LVL1179:
	.loc 1 3662 0
	b	.L992
.LVL1180:
.L1055:
.LBB2110:
.LBB2042:
	.loc 1 3412 0
	mov	w25, -19
	b	.L1014
.LVL1181:
.L1057:
.LBE2042:
.LBE2110:
.LBB2111:
.LBB2053:
	.loc 1 3360 0
	mov	w25, -19
	b	.L1018
.LVL1182:
.L1099:
.LBE2053:
.LBE2111:
.LBB2112:
.LBB2043:
	.loc 1 3430 0
	adrp	x1, .LC56
	mov	x0, x26
	add	x1, x1, :lo12:.LC56
	.loc 1 3431 0
	mov	w25, -12
	.loc 1 3430 0
	bl	_dev_err
.LVL1183:
	b	.L1014
.LVL1184:
.L1095:
.LBE2043:
.LBE2112:
	.loc 1 3762 0
	bl	__stack_chk_fail
.LVL1185:
.L1110:
.LBB2113:
.LBB2094:
	.loc 1 3564 0
	mov	w26, w27
.LVL1186:
	b	.L1051
.LVL1187:
.L1109:
	.loc 1 3568 0
	ldr	x0, [x19, 104]
.LVL1188:
	adrp	x1, .LC71
	adrp	x21, .LANCHOR1
	add	x1, x1, :lo12:.LC71
	bl	_dev_err
.LVL1189:
	b	.L1026
.LVL1190:
.L1111:
	.loc 1 3582 0
	ldr	x0, [x19, 104]
.LVL1191:
	adrp	x1, .LC74
	adrp	x21, .LANCHOR1
	add	x1, x1, :lo12:.LC74
	bl	_dev_err
.LVL1192:
	b	.L1026
.LVL1193:
.L1101:
.LBE2094:
.LBE2113:
.LBB2114:
.LBB2054:
	.loc 1 3376 0
	ldr	x0, [x19, 104]
	adrp	x2, .LANCHOR3
	add	x2, x2, :lo12:.LANCHOR3
	adrp	x1, .LC58
	mov	w3, 3376
	add	x2, x2, 32
	add	x1, x1, :lo12:.LC58
	.loc 1 3377 0
	mov	w25, -12
	.loc 1 3376 0
	bl	_dev_err
.LVL1194:
	b	.L1018
.LBE2054:
.LBE2114:
	.cfi_endproc
.LFE2870:
	.size	ebc_probe, .-ebc_probe
	.align	2
	.p2align 3,,7
	.type	auto_frame_state_read, %function
auto_frame_state_read:
.LFB2862:
	.loc 1 3316 0
	.cfi_startproc
.LVL1195:
	.loc 1 3317 0
	adrp	x0, .LANCHOR0
.LVL1196:
	ldr	x1, [x0, #:lo12:.LANCHOR0]
.LVL1197:
	.loc 1 3321 0
	ldp	w0, w4, [x1, 108]
	mul	w4, w4, w0
	cbz	w4, .L1113
	.loc 1 3322 0
	ldr	x5, [x1, 360]
	mov	w1, 0
.LVL1198:
	ldrb	w3, [x5]
	cbz	w3, .L1116
	b	.L1114
	.p2align 3
.L1118:
	ldrb	w3, [x5, w1, sxtw]
	cbnz	w3, .L1114
.L1116:
	.loc 1 3321 0 discriminator 2
	add	w1, w1, 1
	cmp	w1, w4
	bne	.L1118
.L1113:
.LBB2117:
.LBB2118:
	.loc 1 3327 0
	adrp	x1, .LC100
.LVL1199:
	add	x1, x1, :lo12:.LC100
	mov	x0, 2
	ldrh	w3, [x1]
	ldrb	w1, [x1, 2]
	strh	w3, [x2]
	strb	w1, [x2, 2]
	ret
.LVL1200:
	.p2align 3
.L1114:
.LBE2118:
.LBE2117:
	.loc 1 3316 0
	stp	x29, x30, [sp, -16]!
	.cfi_def_cfa_offset 16
	.cfi_offset 29, -16
	.cfi_offset 30, -8
	mov	x0, x2
	.loc 1 3323 0
	adrp	x1, .LC25
.LVL1201:
	mov	w2, w3
.LVL1202:
	.loc 1 3316 0
	add	x29, sp, 0
	.cfi_def_cfa_register 29
	.loc 1 3323 0
	add	x1, x1, :lo12:.LC25
	.loc 1 3316 0
	.loc 1 3323 0
	bl	sprintf
.LVL1203:
	sxtw	x0, w0
	.loc 1 3328 0
	ldp	x29, x30, [sp], 16
	.cfi_restore 30
	.cfi_restore 29
	.cfi_def_cfa 31, 0
	ret
	.cfi_endproc
.LFE2862:
	.size	auto_frame_state_read, .-auto_frame_state_read
	.align	2
	.p2align 3,,7
	.type	ebc_power_set.constprop.15, %function
ebc_power_set.constprop.15:
.LFB2893:
	.loc 1 390 0
	.cfi_startproc
.LVL1204:
	stp	x29, x30, [sp, -32]!
	.cfi_def_cfa_offset 32
	.cfi_offset 29, -32
	.cfi_offset 30, -24
	add	x29, sp, 0
	.cfi_def_cfa_register 29
	stp	x19, x20, [sp, 16]
	.cfi_offset 19, -16
	.cfi_offset 20, -8
	.loc 1 396 0
	add	x20, x0, 192
	.loc 1 390 0
	mov	x19, x0
	.loc 1 396 0
	ldr	w0, [x20, 464]
.LVL1205:
	cbz	w0, .L1131
.L1129:
	.loc 1 400 0
	mov	w1, 1
	str	w1, [x20, 200]
	.loc 1 401 0
	ldr	x2, [x19, 16]
.LBB2119:
.LBB2120:
	.loc 3 30 0
	mov	x0, x2
	ldr	x2, [x2, 32]
	blr	x2
.LVL1206:
.LBE2120:
.LBE2119:
	.loc 1 402 0
	ldr	x2, [x19, 8]
.LBB2121:
.LBB2122:
	.loc 10 45 0
	add	x1, x19, 24
	mov	x0, x2
	ldr	x2, [x2, 48]
	blr	x2
.LVL1207:
.LBE2122:
.LBE2121:
	.loc 1 403 0
	ldr	x0, [x19]
	adrp	x1, .LC101
	add	x1, x1, :lo12:.LC101
	bl	_dev_info
.LVL1208:
	.loc 1 418 0
	mov	w0, 0
	ldp	x19, x20, [sp, 16]
.LVL1209:
	ldp	x29, x30, [sp], 32
	.cfi_remember_state
	.cfi_restore 30
	.cfi_restore 29
	.cfi_restore 19
	.cfi_restore 20
	.cfi_def_cfa 31, 0
	ret
.LVL1210:
	.p2align 3
.L1131:
	.cfi_restore_state
	.loc 1 397 0
	mov	w0, 1
	str	w0, [x20, 464]
.LBB2123:
.LBB2124:
	.loc 11 58 0
	add	x0, x19, 448
	bl	__pm_stay_awake
.LVL1211:
	b	.L1129
.LBE2124:
.LBE2123:
	.cfi_endproc
.LFE2893:
	.size	ebc_power_set.constprop.15, .-ebc_power_set.constprop.15
	.align	2
	.p2align 3,,7
	.type	ebc_open, %function
ebc_open:
.LFB2892:
	.cfi_startproc
	mov	w0, 0
	str	xzr, [x1, 104]
	ret
	.cfi_endproc
.LFE2892:
	.size	ebc_open, .-ebc_open
	.align	2
	.p2align 3,,7
	.global	refresh_new_image
	.type	refresh_new_image, %function
refresh_new_image:
.LFB2818:
	.loc 1 486 0
	.cfi_startproc
.LVL1212:
	.loc 1 486 0
	stp	x29, x30, [sp, -80]!
	.cfi_def_cfa_offset 80
	.cfi_offset 29, -80
	.cfi_offset 30, -72
	add	x29, sp, 0
	.cfi_def_cfa_register 29
	stp	x19, x20, [sp, 16]
	stp	x21, x22, [sp, 32]
	stp	x23, x24, [sp, 48]
	str	x25, [sp, 64]
	.cfi_offset 19, -64
	.cfi_offset 20, -56
	.cfi_offset 21, -48
	.cfi_offset 22, -40
	.cfi_offset 23, -32
	.cfi_offset 24, -24
	.cfi_offset 25, -16
	.loc 1 494 0
	ldp	w19, w6, [x5, 92]
	cmp	w6, 0
	add	w12, w6, 7
	csel	w12, w12, w6, lt
.LVL1213:
	.loc 1 496 0
	cmp	w19, 0
	ble	.L1133
	asr	w12, w12, 3
.LVL1214:
	mov	w30, 0
.LVL1215:
	sub	w18, w12, #1
.LBB2125:
	.loc 1 510 0
	mov	x17, 4026531840
	add	x18, x18, 1
.LBE2125:
.LBB2126:
	.loc 1 511 0
	mov	x16, 1030792151040
	lsl	x18, x18, 3
.LBE2126:
.LBB2127:
	.loc 1 512 0
	mov	x15, 263882790666240
.LBE2127:
.LBB2128:
	.loc 1 513 0
	mov	x14, 67553994410557440
.LBE2128:
.LBB2129:
	.loc 1 514 0
	mov	x13, -1152921504606846976
	mov	x24, -2305843009213693952
.LBE2129:
.LBB2130:
	.loc 1 513 0
	mov	x23, 63050394783186944
.LBE2130:
.LBB2131:
	.loc 1 512 0
	mov	x22, 246290604621824
.LBE2131:
.LBB2132:
	.loc 1 511 0
	mov	x21, 962072674304
.LBE2132:
.LBB2133:
	.loc 1 510 0
	mov	x20, 3758096384
.LVL1216:
	.p2align 2
.L1135:
.LBE2133:
	.loc 1 497 0 discriminator 1
	mov	x8, 0
	cmp	w12, 0
	ble	.L1200
	.p2align 2
.L1205:
	.loc 1 498 0
	ldr	x11, [x3, x8, lsl 3]
	.loc 1 499 0
	ldr	x7, [x4, x8, lsl 3]
.LVL1217:
	.loc 1 500 0
	ldr	x6, [x1, x8, lsl 3]
.LVL1218:
	.loc 1 501 0
	ldr	x9, [x0, x8, lsl 3]
	.loc 1 502 0
	ldr	x10, [x2, x8, lsl 3]
	.loc 1 505 0
	cbnz	x11, .L1136
.LBB2134:
	.loc 1 507 0
	and	x5, x6, 240
.LVL1219:
	cmp	x5, 240
	bne	.L1211
	mov	x5, 255
.L1137:
.LBE2134:
.LBB2135:
	.loc 1 508 0
	and	x7, x6, 61440
.LVL1220:
	cmp	x7, 61440
	bne	.L1140
	.loc 1 508 0 is_stmt 0 discriminator 1
	orr	x5, x5, 65280
.L1141:
.LBE2135:
.LBB2136:
	.loc 1 509 0 is_stmt 1
	and	x7, x6, 15728640
.LVL1221:
	cmp	x7, 15728640
	bne	.L1144
	.loc 1 509 0 is_stmt 0 discriminator 1
	orr	x5, x5, 16711680
.L1145:
.LBE2136:
.LBB2137:
	.loc 1 510 0 is_stmt 1
	and	x7, x6, 4026531840
.LVL1222:
	cmp	x7, x17
	bne	.L1148
	.loc 1 510 0 is_stmt 0 discriminator 1
	orr	x5, x5, 4278190080
.L1149:
.LBE2137:
.LBB2138:
	.loc 1 511 0 is_stmt 1
	and	x7, x6, 1030792151040
.LVL1223:
	cmp	x7, x16
	bne	.L1152
.L1214:
	.loc 1 511 0 is_stmt 0 discriminator 1
	orr	x5, x5, 1095216660480
.L1153:
.LBE2138:
.LBB2139:
	.loc 1 512 0 is_stmt 1
	and	x7, x6, 263882790666240
.LVL1224:
	cmp	x7, x15
	bne	.L1156
.L1215:
	.loc 1 512 0 is_stmt 0 discriminator 1
	orr	x5, x5, 280375465082880
.L1157:
.LBE2139:
.LBB2140:
	.loc 1 513 0 is_stmt 1
	and	x7, x6, 67553994410557440
.LVL1225:
	cmp	x7, x14
	bne	.L1160
.L1216:
	.loc 1 513 0 is_stmt 0 discriminator 1
	orr	x5, x5, 71776119061217280
.L1161:
.LBE2140:
.LBB2141:
	.loc 1 514 0 is_stmt 1
	and	x7, x6, -1152921504606846976
.LVL1226:
	cmp	x7, x13
	bne	.L1212
.LVL1227:
.L1208:
.LBE2141:
.LBB2142:
	.loc 1 523 0 discriminator 2
	orr	x5, x5, -72057594037927936
.L1165:
	eor	x6, x9, x10
.LVL1228:
.LBE2142:
	.loc 1 528 0 discriminator 2
	str	x11, [x4, x8, lsl 3]
	and	x5, x6, x5
.LVL1229:
	.loc 1 527 0 discriminator 2
	eor	x5, x9, x5
	.loc 1 529 0 discriminator 2
	str	x5, [x0, x8, lsl 3]
	add	x8, x8, 1
	.loc 1 497 0 discriminator 2
	cmp	w12, w8
	bgt	.L1205
	add	x3, x3, x18
	add	x1, x1, x18
	add	x2, x2, x18
	add	x4, x4, x18
	add	x0, x0, x18
.LVL1230:
.L1200:
	.loc 1 496 0 discriminator 2
	add	w30, w30, 1
	cmp	w19, w30
	bne	.L1135
.L1133:
	.loc 1 532 0
	ldp	x19, x20, [sp, 16]
.LVL1231:
	ldp	x21, x22, [sp, 32]
	ldp	x23, x24, [sp, 48]
	ldr	x25, [sp, 64]
	ldp	x29, x30, [sp], 80
	.cfi_remember_state
	.cfi_restore 30
	.cfi_restore 29
	.cfi_restore 25
	.cfi_restore 23
	.cfi_restore 24
	.cfi_restore 21
	.cfi_restore 22
	.cfi_restore 19
	.cfi_restore 20
	.cfi_def_cfa 31, 0
.LVL1232:
	ret
.LVL1233:
	.p2align 3
.L1212:
	.cfi_restore_state
.LBB2143:
	.loc 1 514 0 discriminator 2
	cbz	x7, .L1209
	.loc 1 514 0 is_stmt 0 discriminator 4
	and	x9, x9, 72057594037927935
	cmp	x7, x24
	beq	.L1210
	.loc 1 514 0 discriminator 6
	orr	x9, x7, x9
	b	.L1165
.LVL1234:
	.p2align 3
.L1136:
.LBE2143:
	.loc 1 516 0 is_stmt 1
	and	x25, x11, 255
	.loc 1 503 0
	mov	x5, 0
.LVL1235:
	.loc 1 516 0
	cbnz	x25, .L1168
.LBB2144:
	.loc 1 516 0 is_stmt 0 discriminator 1
	and	x5, x6, 240
.LBE2144:
	and	x7, x7, -256
.LBB2145:
	cmp	x5, 240
	bne	.L1213
	.loc 1 516 0
	mov	x5, 255
.L1168:
.LBE2145:
	.loc 1 517 0 is_stmt 1
	tst	x11, 65280
	bne	.L1171
.LBB2146:
	.loc 1 517 0 is_stmt 0 discriminator 1
	and	x25, x6, 61440
.LVL1236:
.LBE2146:
	and	x7, x7, -65281
.LBB2147:
	cmp	x25, 61440
	bne	.L1172
	.loc 1 517 0 discriminator 2
	orr	x5, x5, 65280
.L1171:
.LBE2147:
	.loc 1 518 0 is_stmt 1
	tst	x11, 16711680
	bne	.L1175
.LBB2148:
	.loc 1 518 0 is_stmt 0 discriminator 1
	and	x25, x6, 15728640
.LVL1237:
.LBE2148:
	and	x7, x7, -16711681
.LBB2149:
	cmp	x25, 15728640
	bne	.L1176
	.loc 1 518 0 discriminator 2
	orr	x5, x5, 16711680
.LVL1238:
.L1175:
.LBE2149:
	.loc 1 519 0 is_stmt 1
	tst	x11, 4278190080
	bne	.L1179
.LBB2150:
	.loc 1 519 0 is_stmt 0 discriminator 1
	and	x25, x6, 4026531840
.LVL1239:
.LBE2150:
	and	x7, x7, -4278190081
.LBB2151:
	cmp	x25, x17
	bne	.L1180
	.loc 1 519 0 discriminator 2
	orr	x5, x5, 4278190080
.LVL1240:
.L1179:
.LBE2151:
	.loc 1 520 0 is_stmt 1
	tst	x11, 1095216660480
	bne	.L1183
.LBB2152:
	.loc 1 520 0 is_stmt 0 discriminator 1
	and	x25, x6, 1030792151040
.LVL1241:
.LBE2152:
	and	x7, x7, -1095216660481
.LBB2153:
	cmp	x25, x16
	bne	.L1184
	.loc 1 520 0 discriminator 2
	orr	x5, x5, 1095216660480
.LVL1242:
.L1183:
.LBE2153:
	.loc 1 521 0 is_stmt 1
	tst	x11, 280375465082880
	bne	.L1187
.LBB2154:
	.loc 1 521 0 is_stmt 0 discriminator 1
	and	x25, x6, 263882790666240
.LVL1243:
.LBE2154:
	and	x7, x7, -280375465082881
.LBB2155:
	cmp	x25, x15
	bne	.L1188
	.loc 1 521 0 discriminator 2
	orr	x5, x5, 280375465082880
.LVL1244:
.L1187:
.LBE2155:
	.loc 1 522 0 is_stmt 1
	tst	x11, 71776119061217280
	bne	.L1191
.LBB2156:
	.loc 1 522 0 is_stmt 0 discriminator 1
	and	x25, x6, 67553994410557440
.LVL1245:
.LBE2156:
	and	x7, x7, -71776119061217281
.LBB2157:
	cmp	x25, x14
	bne	.L1192
	.loc 1 522 0 discriminator 2
	orr	x5, x5, 71776119061217280
.LVL1246:
.L1191:
.LBE2157:
	.loc 1 523 0 is_stmt 1
	and	x25, x11, -72057594037927936
.LVL1247:
.LBB2158:
	mov	x11, x7
.LBE2158:
	cbnz	x25, .L1165
.LBB2159:
	.loc 1 523 0 is_stmt 0 discriminator 1
	and	x6, x6, -1152921504606846976
.LVL1248:
.LBE2159:
	and	x11, x7, 72057594037927935
.LVL1249:
.LBB2160:
	cmp	x6, x13
	beq	.L1208
	.loc 1 523 0 discriminator 3
	cbz	x6, .L1209
	.loc 1 523 0 discriminator 5
	and	x9, x9, 72057594037927935
	cmp	x6, x24
	beq	.L1210
	.loc 1 523 0 discriminator 7
	orr	x9, x6, x9
	b	.L1165
.LVL1250:
	.p2align 3
.L1209:
	.loc 1 523 0 discriminator 4
	and	x9, x9, 72057594037927935
	orr	x11, x11, 72057594037927936
	b	.L1165
.LVL1251:
	.p2align 3
.L1148:
.LBE2160:
.LBB2161:
	.loc 1 510 0 is_stmt 1 discriminator 2
	and	x9, x9, -4278190081
	cbnz	x7, .L1150
.LBE2161:
.LBB2162:
	.loc 1 511 0 discriminator 3
	and	x7, x6, 1030792151040
.LVL1252:
.LBE2162:
.LBB2163:
	.loc 1 510 0 discriminator 3
	orr	x11, x11, 16777216
.LBE2163:
.LBB2164:
	.loc 1 511 0 discriminator 3
	cmp	x7, x16
	beq	.L1214
	.p2align 2
.L1152:
	.loc 1 511 0 is_stmt 0 discriminator 2
	and	x9, x9, -1095216660481
	cbnz	x7, .L1154
.LBE2164:
.LBB2165:
	.loc 1 512 0 is_stmt 1 discriminator 3
	and	x7, x6, 263882790666240
.LVL1253:
.LBE2165:
.LBB2166:
	.loc 1 511 0 discriminator 3
	orr	x11, x11, 4294967296
.LBE2166:
.LBB2167:
	.loc 1 512 0 discriminator 3
	cmp	x7, x15
	beq	.L1215
	.p2align 2
.L1156:
	.loc 1 512 0 is_stmt 0 discriminator 2
	and	x9, x9, -280375465082881
	cbnz	x7, .L1158
.LBE2167:
.LBB2168:
	.loc 1 513 0 is_stmt 1 discriminator 3
	and	x7, x6, 67553994410557440
.LVL1254:
.LBE2168:
.LBB2169:
	.loc 1 512 0 discriminator 3
	orr	x11, x11, 1099511627776
.LBE2169:
.LBB2170:
	.loc 1 513 0 discriminator 3
	cmp	x7, x14
	beq	.L1216
	.p2align 2
.L1160:
	.loc 1 513 0 is_stmt 0 discriminator 2
	and	x9, x9, -71776119061217281
	cbnz	x7, .L1162
	.loc 1 513 0 discriminator 3
	orr	x11, x11, 281474976710656
	b	.L1161
.LVL1255:
	.p2align 3
.L1144:
.LBE2170:
.LBB2171:
	.loc 1 509 0 is_stmt 1 discriminator 2
	and	x9, x9, -16711681
	cbnz	x7, .L1146
	.loc 1 509 0 is_stmt 0 discriminator 3
	orr	x11, x11, 65536
	b	.L1145
.LVL1256:
	.p2align 3
.L1140:
.LBE2171:
.LBB2172:
	.loc 1 508 0 is_stmt 1 discriminator 2
	and	x9, x9, -65281
	cbnz	x7, .L1142
	.loc 1 508 0 is_stmt 0 discriminator 3
	orr	x11, x11, 256
	b	.L1141
.LVL1257:
	.p2align 3
.L1211:
.LBE2172:
.LBB2173:
	.loc 1 507 0 is_stmt 1 discriminator 2
	cbnz	x5, .L1138
	.loc 1 507 0 is_stmt 0 discriminator 3
	and	x9, x9, -256
	mov	x11, 1
	b	.L1137
.LVL1258:
	.p2align 3
.L1150:
.LBE2173:
.LBB2174:
	.loc 1 510 0 is_stmt 1 discriminator 4
	cmp	x7, x20
	beq	.L1217
	.loc 1 510 0 is_stmt 0 discriminator 6
	orr	x9, x7, x9
	b	.L1149
.LVL1259:
	.p2align 3
.L1162:
.LBE2174:
.LBB2175:
	.loc 1 513 0 is_stmt 1 discriminator 4
	cmp	x7, x23
	beq	.L1218
	.loc 1 513 0 is_stmt 0 discriminator 6
	orr	x9, x7, x9
	b	.L1161
.LVL1260:
	.p2align 3
.L1146:
.LBE2175:
.LBB2176:
	.loc 1 509 0 is_stmt 1 discriminator 4
	cmp	x7, 14680064
	beq	.L1219
	.loc 1 509 0 is_stmt 0 discriminator 6
	orr	x9, x7, x9
	b	.L1145
.LVL1261:
	.p2align 3
.L1158:
.LBE2176:
.LBB2177:
	.loc 1 512 0 is_stmt 1 discriminator 4
	cmp	x7, x22
	beq	.L1220
	.loc 1 512 0 is_stmt 0 discriminator 6
	orr	x9, x7, x9
	b	.L1157
.LVL1262:
	.p2align 3
.L1142:
.LBE2177:
.LBB2178:
	.loc 1 508 0 is_stmt 1 discriminator 4
	cmp	x7, 57344
	beq	.L1221
	.loc 1 508 0 is_stmt 0 discriminator 6
	orr	x9, x7, x9
	b	.L1141
.LVL1263:
	.p2align 3
.L1154:
.LBE2178:
.LBB2179:
	.loc 1 511 0 is_stmt 1 discriminator 4
	cmp	x7, x21
	beq	.L1222
	.loc 1 511 0 is_stmt 0 discriminator 6
	orr	x9, x7, x9
	b	.L1153
.LVL1264:
	.p2align 3
.L1138:
.LBE2179:
.LBB2180:
	.loc 1 507 0 is_stmt 1 discriminator 4
	cmp	x5, 224
	beq	.L1223
	.loc 1 507 0 is_stmt 0 discriminator 6
	and	x9, x9, -256
	orr	x9, x5, x9
.LBE2180:
	.loc 1 503 0 is_stmt 1 discriminator 6
	mov	x5, 0
	b	.L1137
.LVL1265:
	.p2align 3
.L1210:
.LBB2181:
	.loc 1 523 0 discriminator 6
	orr	x11, x11, 72057594037927936
	orr	x9, x9, -1152921504606846976
	b	.L1165
.LVL1266:
	.p2align 3
.L1217:
.LBE2181:
.LBB2182:
	.loc 1 510 0 discriminator 5
	orr	x11, x11, 16777216
	orr	x9, x9, 4026531840
	b	.L1149
.LVL1267:
	.p2align 3
.L1223:
.LBE2182:
.LBB2183:
	.loc 1 507 0 discriminator 5
	and	x5, x9, -256
.LVL1268:
	mov	x11, 1
	orr	x9, x5, 240
.LBE2183:
	.loc 1 503 0 discriminator 5
	mov	x5, 0
.LVL1269:
.LBB2184:
	b	.L1137
.LVL1270:
	.p2align 3
.L1218:
.LBE2184:
.LBB2185:
	.loc 1 513 0 discriminator 5
	orr	x11, x11, 281474976710656
	orr	x9, x9, 67553994410557440
	b	.L1161
.LVL1271:
	.p2align 3
.L1220:
.LBE2185:
.LBB2186:
	.loc 1 512 0 discriminator 5
	orr	x11, x11, 1099511627776
	orr	x9, x9, 263882790666240
	b	.L1157
.LVL1272:
	.p2align 3
.L1219:
.LBE2186:
.LBB2187:
	.loc 1 509 0 discriminator 5
	orr	x11, x11, 65536
	orr	x9, x9, 15728640
	b	.L1145
.LVL1273:
	.p2align 3
.L1221:
.LBE2187:
.LBB2188:
	.loc 1 508 0 discriminator 5
	orr	x11, x11, 256
	orr	x9, x9, 61440
	b	.L1141
.LVL1274:
	.p2align 3
.L1222:
.LBE2188:
.LBB2189:
	.loc 1 511 0 discriminator 5
	orr	x11, x11, 4294967296
	orr	x9, x9, 1030792151040
	b	.L1153
.LVL1275:
.L1213:
.LBE2189:
.LBB2190:
	.loc 1 516 0 discriminator 3
	cbz	x5, .L1224
	.loc 1 516 0 is_stmt 0 discriminator 5
	cmp	x5, 224
	beq	.L1225
	.loc 1 516 0 discriminator 7
	and	x9, x9, -256
	orr	x9, x5, x9
.LBE2190:
	.loc 1 503 0 is_stmt 1 discriminator 7
	mov	x5, 0
	b	.L1168
.LVL1276:
.L1172:
.LBB2191:
	.loc 1 517 0 discriminator 3
	and	x9, x9, -65281
	cbz	x25, .L1226
	.loc 1 517 0 is_stmt 0 discriminator 5
	cmp	x25, 57344
	beq	.L1227
	.loc 1 517 0 discriminator 7
	orr	x9, x25, x9
	b	.L1171
.LVL1277:
.L1176:
.LBE2191:
.LBB2192:
	.loc 1 518 0 is_stmt 1 discriminator 3
	and	x9, x9, -16711681
	cbz	x25, .L1228
	.loc 1 518 0 is_stmt 0 discriminator 5
	cmp	x25, 14680064
	beq	.L1229
	.loc 1 518 0 discriminator 7
	orr	x9, x25, x9
	b	.L1175
.LVL1278:
.L1180:
.LBE2192:
.LBB2193:
	.loc 1 519 0 is_stmt 1 discriminator 3
	and	x9, x9, -4278190081
	cbz	x25, .L1230
	.loc 1 519 0 is_stmt 0 discriminator 5
	cmp	x25, x20
	beq	.L1231
	.loc 1 519 0 discriminator 7
	orr	x9, x25, x9
	b	.L1179
.LVL1279:
.L1184:
.LBE2193:
.LBB2194:
	.loc 1 520 0 is_stmt 1 discriminator 3
	and	x9, x9, -1095216660481
	cbz	x25, .L1232
	.loc 1 520 0 is_stmt 0 discriminator 5
	cmp	x25, x21
	beq	.L1233
	.loc 1 520 0 discriminator 7
	orr	x9, x25, x9
	b	.L1183
.LVL1280:
.L1188:
.LBE2194:
.LBB2195:
	.loc 1 521 0 is_stmt 1 discriminator 3
	and	x9, x9, -280375465082881
	cbz	x25, .L1234
	.loc 1 521 0 is_stmt 0 discriminator 5
	cmp	x25, x22
	beq	.L1235
	.loc 1 521 0 discriminator 7
	orr	x9, x25, x9
	b	.L1187
.LVL1281:
.L1192:
.LBE2195:
.LBB2196:
	.loc 1 522 0 is_stmt 1 discriminator 3
	and	x9, x9, -71776119061217281
	cbz	x25, .L1236
	.loc 1 522 0 is_stmt 0 discriminator 5
	cmp	x25, x23
	beq	.L1237
	.loc 1 522 0 discriminator 7
	orr	x9, x25, x9
	b	.L1191
.L1236:
	.loc 1 522 0 discriminator 4
	orr	x7, x7, 281474976710656
	b	.L1191
.LVL1282:
.L1234:
.LBE2196:
.LBB2197:
	.loc 1 521 0 is_stmt 1 discriminator 4
	orr	x7, x7, 1099511627776
	b	.L1187
.LVL1283:
.L1232:
.LBE2197:
.LBB2198:
	.loc 1 520 0 discriminator 4
	orr	x7, x7, 4294967296
	b	.L1183
.LVL1284:
.L1230:
.LBE2198:
.LBB2199:
	.loc 1 519 0 discriminator 4
	orr	x7, x7, 16777216
	b	.L1179
.LVL1285:
.L1228:
.LBE2199:
.LBB2200:
	.loc 1 518 0 discriminator 4
	orr	x7, x7, 65536
	b	.L1175
.LVL1286:
.L1226:
.LBE2200:
.LBB2201:
	.loc 1 517 0 discriminator 4
	orr	x7, x7, 256
	b	.L1171
.LVL1287:
.L1224:
.LBE2201:
.LBB2202:
	.loc 1 516 0 discriminator 4
	and	x9, x9, -256
	orr	x7, x7, 1
	b	.L1168
.LVL1288:
.L1237:
.LBE2202:
.LBB2203:
	.loc 1 522 0 discriminator 6
	orr	x7, x7, 281474976710656
	orr	x9, x9, 67553994410557440
	b	.L1191
.LVL1289:
.L1225:
.LBE2203:
.LBB2204:
	.loc 1 516 0 discriminator 6
	and	x5, x9, -256
.LVL1290:
	orr	x7, x7, 1
	orr	x9, x5, 240
.LBE2204:
	.loc 1 503 0 discriminator 6
	mov	x5, 0
.LVL1291:
.LBB2205:
	b	.L1168
.LVL1292:
.L1227:
.LBE2205:
.LBB2206:
	.loc 1 517 0 discriminator 6
	orr	x7, x7, 256
	orr	x9, x9, 61440
	b	.L1171
.LVL1293:
.L1229:
.LBE2206:
.LBB2207:
	.loc 1 518 0 discriminator 6
	orr	x7, x7, 65536
	orr	x9, x9, 15728640
	b	.L1175
.LVL1294:
.L1231:
.LBE2207:
.LBB2208:
	.loc 1 519 0 discriminator 6
	orr	x7, x7, 16777216
	orr	x9, x9, 4026531840
	b	.L1179
.LVL1295:
.L1233:
.LBE2208:
.LBB2209:
	.loc 1 520 0 discriminator 6
	orr	x7, x7, 4294967296
	orr	x9, x9, 1030792151040
	b	.L1183
.LVL1296:
.L1235:
.LBE2209:
.LBB2210:
	.loc 1 521 0 discriminator 6
	orr	x7, x7, 1099511627776
	orr	x9, x9, 263882790666240
	b	.L1187
.LBE2210:
	.cfi_endproc
.LFE2818:
	.size	refresh_new_image, .-refresh_new_image
	.align	2
	.p2align 3,,7
	.global	refresh_new_image_auto
	.type	refresh_new_image_auto, %function
refresh_new_image_auto:
.LFB2819:
	.loc 1 535 0
	.cfi_startproc
.LVL1297:
	.loc 1 542 0
	ldp	w14, w4, [x3, 92]
	cmp	w4, 0
	add	w10, w4, 7
	csel	w10, w10, w4, lt
.LVL1298:
	.loc 1 544 0
	cmp	w14, 0
	.loc 1 542 0
	asr	w10, w10, 3
.LVL1299:
	.loc 1 544 0
	ble	.L1238
	sub	w12, w10, #1
	mov	w13, 0
.LVL1300:
	add	x12, x12, 1
	.loc 1 557 0
	mov	x11, 255
	lsl	x12, x12, 3
.LVL1301:
	.p2align 2
.L1240:
	.loc 1 545 0 discriminator 1
	cmp	w10, 0
	ble	.L1251
	add	x7, x0, 8
	.loc 1 545 0 is_stmt 0
	mov	x5, 0
	.p2align 2
.L1250:
	.loc 1 547 0 is_stmt 1
	ldr	x3, [x1, x5, lsl 3]
.LVL1302:
	.loc 1 548 0
	ldr	x8, [x7, -8]
	eor	x6, x3, x8
	.loc 1 551 0
	cmp	x3, x8
	beq	.L1241
	.loc 1 546 0
	ldr	x4, [x2, x5, lsl 3]
.LVL1303:
	.loc 1 556 0
	and	x3, x4, 255
.LVL1304:
	.loc 1 557 0
	cmp	x3, 0
	csel	x3, xzr, x11, ne
.LVL1305:
	.loc 1 561 0
	tst	x4, 65280
	orr	x9, x3, 65280
	csel	x3, x9, x3, eq
	.loc 1 565 0
	tst	x4, 16711680
	orr	x9, x3, 16711680
	csel	x3, x9, x3, eq
	.loc 1 569 0
	tst	x4, 4278190080
	orr	x9, x3, 4278190080
	csel	x3, x9, x3, eq
	.loc 1 573 0
	tst	x4, 1095216660480
	orr	x9, x3, 1095216660480
	csel	x3, x9, x3, eq
	.loc 1 577 0
	tst	x4, 280375465082880
	orr	x9, x3, 280375465082880
	csel	x3, x9, x3, eq
	.loc 1 581 0
	tst	x4, 71776119061217280
	orr	x9, x3, 71776119061217280
	csel	x3, x9, x3, eq
	.loc 1 585 0
	tst	x4, -72057594037927936
	orr	x4, x3, -72057594037927936
.LVL1306:
	csel	x3, x4, x3, eq
	and	x3, x6, x3
.LVL1307:
	.loc 1 588 0
	eor	x3, x3, x8
	.loc 1 589 0
	str	x3, [x7, -8]
.LVL1308:
.L1241:
	add	x5, x5, 1
	add	x7, x7, 8
	.loc 1 545 0 discriminator 2
	cmp	w10, w5
	bgt	.L1250
	add	x0, x0, x12
	add	x2, x2, x12
	add	x1, x1, x12
.LVL1309:
.L1251:
	.loc 1 544 0 discriminator 2
	add	w13, w13, 1
	cmp	w14, w13
	bne	.L1240
.L1238:
	ret
	.cfi_endproc
.LFE2819:
	.size	refresh_new_image_auto, .-refresh_new_image_auto
	.align	2
	.p2align 3,,7
	.type	ebc_thread, %function
ebc_thread:
.LFB2844:
	.loc 1 2348 0
	.cfi_startproc
.LVL1310:
	stp	x29, x30, [sp, -160]!
	.cfi_def_cfa_offset 160
	.cfi_offset 29, -160
	.cfi_offset 30, -152
	.loc 1 2349 0
	adrp	x2, .LANCHOR0
	.loc 1 2348 0
	adrp	x1, __stack_chk_guard
	add	x1, x1, :lo12:__stack_chk_guard
	add	x29, sp, 0
	.cfi_def_cfa_register 29
	stp	x25, x26, [sp, 64]
.LBB2298:
.LBB2299:
.LBB2300:
	.loc 1 2808 0
	adrp	x0, .LANCHOR1
.LVL1311:
.LBE2300:
.LBE2299:
.LBE2298:
	.loc 1 2348 0
	stp	x23, x24, [sp, 48]
.LBB2313:
.LBB2309:
.LBB2304:
	.loc 1 2808 0
	add	x0, x0, :lo12:.LANCHOR1
	.cfi_offset 25, -96
	.cfi_offset 26, -88
	.cfi_offset 23, -112
	.cfi_offset 24, -104
.LBE2304:
.LBE2309:
.LBE2313:
	.loc 1 2349 0
	ldr	x24, [x2, #:lo12:.LANCHOR0]
.LVL1312:
.LBB2314:
.LBB2310:
.LBB2305:
	.loc 1 2808 0
	add	x0, x0, 304
.LBE2305:
.LBE2310:
.LBE2314:
	.loc 1 2348 0
	stp	x27, x28, [sp, 80]
	.loc 1 2356 0
	mov	w26, 0
.LVL1313:
	.loc 1 2348 0
	stp	x19, x20, [sp, 16]
	.loc 1 2350 0
	add	x25, x24, 192
	.loc 1 2348 0
	stp	x21, x22, [sp, 32]
	.cfi_offset 27, -80
	.cfi_offset 28, -72
	.cfi_offset 19, -144
	.cfi_offset 20, -136
	.cfi_offset 21, -128
	.cfi_offset 22, -120
	add	x27, x24, 24
	.loc 1 2354 0
	str	wzr, [x29, 100]
	.loc 1 2348 0
	ldr	x2, [x1]
	str	x2, [x29, 152]
	mov	x2,0
.LBB2315:
.LBB2311:
.LBB2306:
	.loc 1 2808 0
	str	x0, [x29, 104]
.LVL1314:
	.p2align 2
.L1255:
.LBE2306:
.LBE2311:
.LBE2315:
	.loc 1 2360 0
	ldr	w0, [x25, 592]
.LVL1315:
	cbz	w0, .L1256
	.loc 1 2360 0 is_stmt 0 discriminator 1
	ldr	w0, [x27, 160]
	cbz	w0, .L1608
.L1256:
	.loc 1 2366 0 is_stmt 1
	cbnz	w26, .L1258
	.loc 1 2366 0 is_stmt 0 discriminator 1
	ldr	w0, [x25, 612]
	cbz	w0, .L1609
.L1258:
	.loc 1 2412 0 is_stmt 1
	ldr	w0, [x25, 604]
	cbz	w0, .L1310
	.loc 1 2412 0 is_stmt 0 discriminator 1
	ldr	w0, [x25, 600]
	cbnz	w0, .L1310
	.loc 1 2412 0 discriminator 2
	ldr	w0, [x25, 612]
	cbnz	w0, .L1310
.L1311:
	.loc 1 2807 0 is_stmt 1
	ldr	w0, [x25, 100]
	cbz	w0, .L1610
.L1433:
.LVL1316:
.L1431:
	.loc 1 2833 0
	str	wzr, [x25, 100]
	b	.L1255
.LVL1317:
.L1608:
	.loc 1 2361 0
	ldr	w0, [x25, 200]
	cmp	w0, 1
	beq	.L1611
.L1257:
	.loc 1 2838 0
	adrp	x0, __stack_chk_guard
	add	x1, x0, :lo12:__stack_chk_guard
	ldr	x2, [x29, 152]
	ldr	x1, [x1]
	eor	x1, x2, x1
	mov	w0, 0
	cbnz	x1, .L1612
	ldp	x19, x20, [sp, 16]
.LVL1318:
	ldp	x21, x22, [sp, 32]
.LVL1319:
	ldp	x23, x24, [sp, 48]
.LVL1320:
	ldp	x25, x26, [sp, 64]
.LVL1321:
	ldp	x27, x28, [sp, 80]
.LVL1322:
	ldp	x29, x30, [sp], 160
	.cfi_remember_state
	.cfi_restore 30
	.cfi_restore 29
	.cfi_restore 27
	.cfi_restore 28
	.cfi_restore 25
	.cfi_restore 26
	.cfi_restore 23
	.cfi_restore 24
	.cfi_restore 21
	.cfi_restore 22
	.cfi_restore 19
	.cfi_restore 20
	.cfi_def_cfa 31, 0
	ret
.LVL1323:
.L1609:
	.cfi_restore_state
	.loc 1 2367 0
	bl	ebc_osd_buf_get
.LVL1324:
	mov	x19, x0
.LVL1325:
	.loc 1 2368 0
	cbz	x0, .L1258
	.loc 1 2369 0
	ldr	x0, [x25, 584]
	cbnz	x0, .L1259
	.loc 1 2369 0 is_stmt 0 discriminator 1
	ldr	w26, [x25, 592]
.LVL1326:
	cbnz	w26, .L1259
	.loc 1 2375 0 is_stmt 1
	ldr	w0, [x25, 252]
	sub	w1, w0, #1
	cmp	w1, 1
	bls	.L1613
	.loc 1 2378 0
	cmp	w0, 3
	beq	.L1614
.L1263:
	.loc 1 2384 0
	str	x19, [x25, 240]
	.loc 1 2385 0
	mov	w0, 4
	str	w0, [x25, 252]
	.loc 1 2388 0
	ldr	x3, [x25, 224]
.LBB2316:
.LBB2317:
	.loc 1 437 0
	ldp	w2, w22, [x19, 48]
.LVL1327:
	.loc 1 438 0
	ldp	w1, w28, [x19, 56]
.LVL1328:
	.loc 1 435 0
	cmp	w2, 0
	.loc 1 440 0
	ldr	w0, [x24, 288]
	.loc 1 435 0
	add	w23, w2, 7
.LVL1329:
	csel	w23, w23, w2, lt
	.loc 1 436 0
	add	w14, w1, 7
	cmp	w1, 0
	.loc 1 440 0
	add	w16, w0, 7
	.loc 1 436 0
	csel	w14, w14, w1, lt
	.loc 1 440 0
	cmp	w0, 0
	csel	w16, w16, w0, lt
	.loc 1 436 0
	asr	w14, w14, 3
	.loc 1 440 0
	asr	w16, w16, 3
.LVL1330:
	.loc 1 436 0
	add	w14, w14, 1
.LVL1331:
	ldr	w1, [x24, 284]
	.loc 1 443 0
	cmp	w14, w16
.LBE2317:
.LBE2316:
	.loc 1 2390 0
	ldp	x11, x8, [x25, 168]
.LVL1332:
.LBB2369:
.LBB2363:
	.loc 1 447 0
	mul	w0, w22, w16
	.loc 1 443 0
	sub	w2, w16, #1
.LBE2363:
.LBE2369:
	.loc 1 2386 0
	ldr	x9, [x25, 152]
.LBB2370:
.LBB2364:
	.loc 1 443 0
	csel	w14, w2, w14, ge
.LBE2364:
.LBE2370:
	.loc 1 2388 0
	ldr	x12, [x3, 16]
.LVL1333:
.LBB2371:
.LBB2365:
	.loc 1 445 0
	cmp	w1, w28
	sub	w2, w1, #1
.LBE2365:
.LBE2371:
	.loc 1 2387 0
	ldr	x13, [x19, 16]
.LBB2372:
.LBB2366:
	.loc 1 447 0
	sbfiz	x0, x0, 3, 32
	.loc 1 445 0
	csel	w28, w2, w28, le
	.loc 1 435 0
	asr	w23, w23, 3
.LVL1334:
	.loc 1 447 0
	add	x9, x9, x0
.LVL1335:
	.loc 1 450 0
	add	x11, x11, x0
.LVL1336:
	.loc 1 451 0
	add	x8, x8, x0
.LVL1337:
	.loc 1 453 0
	cmp	w22, w28
	.loc 1 449 0
	add	x12, x12, x0
.LVL1338:
	.loc 1 448 0
	add	x13, x13, x0
.LVL1339:
	.loc 1 453 0
	bgt	.L1270
	sbfiz	x16, x16, 3, 32
.LVL1340:
.LBB2318:
	.loc 1 465 0
	mov	x21, 4026531840
.LVL1341:
.LBE2318:
.LBB2319:
	.loc 1 466 0
	mov	x20, 1030792151040
.LVL1342:
.LBE2319:
.LBB2320:
	.loc 1 467 0
	mov	x19, 263882790666240
.LBE2320:
.LBB2321:
	.loc 1 468 0
	mov	x18, 67553994410557440
.LBE2321:
.LBB2322:
	.loc 1 469 0
	mov	x17, -1152921504606846976
.LVL1343:
	.p2align 2
.L1271:
.LBE2322:
	.loc 1 454 0
	cmp	w23, w14
	mov	w5, w23
	ble	.L1526
	b	.L1305
.LVL1344:
	.p2align 3
.L1616:
.LBB2323:
	.loc 1 462 0
	and	x15, x4, 240
.LVL1345:
.LBE2323:
	and	x0, x0, -256
.LBB2324:
	cmp	x15, 240
	bne	.L1615
	mov	x2, 255
.LVL1346:
.L1272:
.LBE2324:
	.loc 1 463 0
	tst	x1, 65280
	bne	.L1275
.LBB2325:
	and	x15, x4, 61440
.LVL1347:
.LBE2325:
	and	x0, x0, -65281
.LBB2326:
	cmp	x15, 61440
	bne	.L1276
	orr	x2, x2, 65280
.LVL1348:
.L1275:
.LBE2326:
	.loc 1 464 0
	tst	x1, 16711680
	bne	.L1279
.LBB2327:
	and	x15, x4, 15728640
.LVL1349:
.LBE2327:
	and	x0, x0, -16711681
.LBB2328:
	cmp	x15, 15728640
	bne	.L1280
	orr	x2, x2, 16711680
.LVL1350:
.L1279:
.LBE2328:
	.loc 1 465 0
	tst	x1, 4278190080
	bne	.L1283
.LBB2329:
	and	x15, x4, 4026531840
.LVL1351:
.LBE2329:
	and	x0, x0, -4278190081
.LBB2330:
	cmp	x15, x21
	bne	.L1284
	orr	x2, x2, 4278190080
.LVL1352:
.L1283:
.LBE2330:
	.loc 1 466 0
	tst	x1, 1095216660480
	bne	.L1287
.LBB2331:
	and	x15, x4, 1030792151040
.LVL1353:
.LBE2331:
	and	x0, x0, -1095216660481
.LBB2332:
	cmp	x15, x20
	bne	.L1288
	orr	x2, x2, 1095216660480
.LVL1354:
.L1287:
.LBE2332:
	.loc 1 467 0
	tst	x1, 280375465082880
	bne	.L1291
.LBB2333:
	and	x15, x4, 263882790666240
.LVL1355:
.LBE2333:
	and	x0, x0, -280375465082881
.LBB2334:
	cmp	x15, x19
	bne	.L1292
	orr	x2, x2, 280375465082880
.LVL1356:
.L1291:
.LBE2334:
	.loc 1 468 0
	tst	x1, 71776119061217280
	bne	.L1295
.LBB2335:
	and	x15, x4, 67553994410557440
.LVL1357:
.LBE2335:
	and	x0, x0, -71776119061217281
.LBB2336:
	cmp	x15, x18
	bne	.L1296
	orr	x2, x2, 71776119061217280
.LVL1358:
.L1295:
.LBE2336:
	.loc 1 469 0
	tst	x1, -72057594037927936
	bne	.L1299
.LBB2337:
	and	x4, x4, -1152921504606846976
.LVL1359:
.LBE2337:
	and	x0, x0, 72057594037927935
.LBB2338:
	cmp	x4, x17
	bne	.L1300
	orr	x2, x2, -72057594037927936
.LVL1360:
.L1299:
	eor	x6, x6, x3
.LVL1361:
.LBE2338:
	.loc 1 473 0
	str	x0, [x7]
	and	x2, x6, x2
.LVL1362:
	.loc 1 454 0
	add	w5, w5, 1
	.loc 1 472 0
	eor	x2, x3, x2
	.loc 1 474 0
	str	x2, [x10]
	.loc 1 454 0
	cmp	w5, w14
	bgt	.L1305
.L1526:
	.loc 1 455 0
	sxtw	x0, w5
.LVL1363:
	lsl	x7, x0, 3
	add	x10, x9, x7
	.loc 1 459 0
	add	x7, x8, x7
	.loc 1 458 0
	ldr	x1, [x11, x0, lsl 3]
	.loc 1 455 0
	ldr	x3, [x9, x0, lsl 3]
	.loc 1 456 0
	ldr	x4, [x13, x0, lsl 3]
.LVL1364:
	.loc 1 462 0
	ands	x2, x1, 255
.LVL1365:
	.loc 1 457 0
	ldr	x6, [x12, x0, lsl 3]
.LVL1366:
	.loc 1 459 0
	ldr	x0, [x8, x0, lsl 3]
.LVL1367:
	.loc 1 462 0
	beq	.L1616
	.loc 1 460 0
	mov	x2, 0
	b	.L1272
.LVL1368:
	.p2align 3
.L1305:
	.loc 1 453 0
	add	w22, w22, 1
	.loc 1 476 0
	add	x9, x9, x16
	.loc 1 477 0
	add	x13, x13, x16
	.loc 1 478 0
	add	x12, x12, x16
	.loc 1 479 0
	add	x11, x11, x16
	.loc 1 480 0
	add	x8, x8, x16
	.loc 1 453 0
	cmp	w22, w28
	ble	.L1271
.LVL1369:
.L1270:
.LBE2366:
.LBE2372:
	.loc 1 2392 0
	ldr	w0, [x25, 52]
.LVL1370:
	cbnz	w0, .L1306
	.loc 1 2394 0
	ldr	w0, [x25, 200]
	.loc 1 2393 0
	mov	w1, 1
.LVL1371:
	str	w1, [x25, 52]
	.loc 1 2394 0
	cbz	w0, .L1617
.L1307:
	.loc 1 2396 0
	mov	w1, 1
	mov	x0, x24
	bl	ebc_lut_update
.LVL1372:
	.loc 1 2398 0
	ldr	w3, [x25, 112]
	.loc 1 2400 0
	adrp	x1, .LC105
	ldr	x0, [x25, 104]
	add	x1, x1, :lo12:.LC105
	and	w2, w3, 255
	.loc 1 2398 0
	strb	w3, [x25, 56]
	.loc 1 2399 0
	lsr	w4, w3, 8
	strb	w4, [x25, 57]
	.loc 1 2400 0
	and	w3, w4, 255
	bl	_dev_info
.LVL1373:
	.loc 1 2401 0
	mov	x0, x24
	bl	ebc_frame_start
.LVL1374:
.L1308:
	.loc 1 2405 0
	ldr	x0, [x25, 232]
	cbz	x0, .L1309
	.loc 1 2406 0
	bl	ebc_buf_release
.LVL1375:
.L1309:
	.loc 1 2407 0
	ldr	x0, [x25, 240]
	str	x0, [x25, 232]
	.loc 1 2409 0
	b	.L1255
.LVL1376:
	.p2align 3
.L1300:
.LBB2373:
.LBB2367:
.LBB2339:
	.loc 1 469 0
	cbnz	x4, .L1301
	and	x3, x3, 72057594037927935
	orr	x0, x0, 72057594037927936
	b	.L1299
.LVL1377:
	.p2align 3
.L1292:
.LBE2339:
.LBB2340:
	.loc 1 467 0
	cbnz	x15, .L1293
	and	x3, x3, -280375465082881
	orr	x0, x0, 1099511627776
	b	.L1291
.LVL1378:
	.p2align 3
.L1296:
.LBE2340:
.LBB2341:
	.loc 1 468 0
	cbnz	x15, .L1297
	and	x3, x3, -71776119061217281
	orr	x0, x0, 281474976710656
	b	.L1295
.LVL1379:
	.p2align 3
.L1615:
.LBE2341:
.LBB2342:
	.loc 1 462 0
	cbnz	x15, .L1273
	and	x3, x3, -256
	orr	x0, x0, 1
	b	.L1272
.LVL1380:
	.p2align 3
.L1276:
.LBE2342:
.LBB2343:
	.loc 1 463 0
	and	x3, x3, -65281
	cbnz	x15, .L1277
	orr	x0, x0, 256
	b	.L1275
.LVL1381:
	.p2align 3
.L1284:
.LBE2343:
.LBB2344:
	.loc 1 465 0
	cbnz	x15, .L1285
	and	x3, x3, -4278190081
	orr	x0, x0, 16777216
	b	.L1283
.LVL1382:
	.p2align 3
.L1280:
.LBE2344:
.LBB2345:
	.loc 1 464 0
	and	x3, x3, -16711681
	cbnz	x15, .L1281
	orr	x0, x0, 65536
	b	.L1279
.LVL1383:
	.p2align 3
.L1288:
.LBE2345:
.LBB2346:
	.loc 1 466 0
	cbnz	x15, .L1289
	and	x3, x3, -1095216660481
	orr	x0, x0, 4294967296
	b	.L1287
.LVL1384:
	.p2align 3
.L1301:
.LBE2346:
.LBB2347:
	.loc 1 469 0
	mov	x1, -2305843009213693952
.LVL1385:
	and	x3, x3, 72057594037927935
	cmp	x4, x1
	beq	.L1618
	orr	x3, x4, x3
	b	.L1299
.LVL1386:
	.p2align 3
.L1293:
.LBE2347:
.LBB2348:
	.loc 1 467 0
	mov	x30, 246290604621824
	and	x3, x3, -280375465082881
	cmp	x15, x30
	beq	.L1619
	orr	x3, x15, x3
	b	.L1291
.LVL1387:
	.p2align 3
.L1289:
.LBE2348:
.LBB2349:
	.loc 1 466 0
	mov	x30, 962072674304
	and	x3, x3, -1095216660481
	cmp	x15, x30
	beq	.L1620
	orr	x3, x15, x3
	b	.L1287
.LVL1388:
	.p2align 3
.L1273:
.LBE2349:
.LBB2350:
	.loc 1 462 0
	cmp	x15, 224
	beq	.L1621
	bfi	x3, x15, 0, 8
	b	.L1272
.LVL1389:
	.p2align 3
.L1297:
.LBE2350:
.LBB2351:
	.loc 1 468 0
	mov	x30, 63050394783186944
	and	x3, x3, -71776119061217281
	cmp	x15, x30
	beq	.L1622
	orr	x3, x15, x3
	b	.L1295
.LVL1390:
	.p2align 3
.L1277:
.LBE2351:
.LBB2352:
	.loc 1 463 0
	cmp	x15, 57344
	beq	.L1623
	orr	x3, x15, x3
	b	.L1275
.LVL1391:
	.p2align 3
.L1285:
.LBE2352:
.LBB2353:
	.loc 1 465 0
	mov	x30, 3758096384
	and	x3, x3, -4278190081
	cmp	x15, x30
	beq	.L1624
	orr	x3, x15, x3
	b	.L1283
.LVL1392:
	.p2align 3
.L1281:
.LBE2353:
.LBB2354:
	.loc 1 464 0
	cmp	x15, 14680064
	beq	.L1625
	orr	x3, x15, x3
	b	.L1279
.LVL1393:
	.p2align 3
.L1259:
.LBE2354:
.LBE2367:
.LBE2373:
	.loc 1 2370 0
	ldr	x0, [x25, 104]
	adrp	x1, .LC102
	add	x1, x1, :lo12:.LC102
	.loc 1 2373 0
	mov	w26, 0
	.loc 1 2370 0
	bl	_dev_info
.LVL1394:
	.loc 1 2371 0
	mov	x0, x19
	bl	ebc_buf_release
.LVL1395:
	.loc 1 2373 0
	b	.L1255
.LVL1396:
.L1618:
.LBB2374:
.LBB2368:
.LBB2355:
	.loc 1 469 0
	orr	x0, x0, 72057594037927936
	orr	x3, x3, -1152921504606846976
	b	.L1299
.LVL1397:
.L1619:
.LBE2355:
.LBB2356:
	.loc 1 467 0
	orr	x0, x0, 1099511627776
	orr	x3, x3, 263882790666240
	b	.L1291
.LVL1398:
.L1621:
.LBE2356:
.LBB2357:
	.loc 1 462 0
	and	x3, x3, -256
	orr	x0, x0, 1
	orr	x3, x3, 240
	b	.L1272
.LVL1399:
.L1623:
.LBE2357:
.LBB2358:
	.loc 1 463 0
	orr	x0, x0, 256
	orr	x3, x3, 61440
	b	.L1275
.LVL1400:
.L1622:
.LBE2358:
.LBB2359:
	.loc 1 468 0
	orr	x0, x0, 281474976710656
	orr	x3, x3, 67553994410557440
	b	.L1295
.LVL1401:
.L1624:
.LBE2359:
.LBB2360:
	.loc 1 465 0
	orr	x0, x0, 16777216
	orr	x3, x3, 4026531840
	b	.L1283
.LVL1402:
.L1620:
.LBE2360:
.LBB2361:
	.loc 1 466 0
	orr	x0, x0, 4294967296
	orr	x3, x3, 1030792151040
	b	.L1287
.LVL1403:
.L1625:
.LBE2361:
.LBB2362:
	.loc 1 464 0
	orr	x0, x0, 65536
	orr	x3, x3, 15728640
	b	.L1279
.LVL1404:
	.p2align 3
.L1310:
.LBE2362:
.LBE2368:
.LBE2374:
	.loc 1 2413 0
	bl	ebc_dsp_buf_get
.LVL1405:
	mov	x19, x0
.LVL1406:
	.loc 1 2414 0
	cbz	x0, .L1311
	.loc 1 2415 0
	ldr	w1, [x27, 160]
	cbnz	w1, .L1312
	.loc 1 2416 0
	ldr	w1, [x0, 40]
	sub	w2, w1, #18
	tst	w2, -3
	bne	.L1313
	.loc 1 2417 0
	adrp	x0, .LANCHOR0
	add	x0, x0, :lo12:.LANCHOR0
	str	wzr, [x0, 32]
.L1314:
	.loc 1 2498 0
	ldr	w0, [x19, 64]
	.loc 1 2496 0
	cbz	w26, .L1330
	.loc 1 2498 0
	cbnz	w0, .L1327
	.loc 1 2500 0
	mov	w0, 1
	str	w0, [x19, 64]
	.loc 1 2499 0
	mov	w0, 21
	str	w0, [x19, 40]
.L1328:
	.loc 1 2609 0
	ldr	w0, [x25, 468]
	cbz	w0, .L1435
.L1370:
	.loc 1 2672 0
	ldr	w0, [x25, 52]
	.loc 1 2666 0
	mov	w20, 1
.LVL1407:
	.loc 1 2672 0
	cbnz	w0, .L1626
.L1389:
.LVL1408:
.L1386:
	.loc 1 2677 0
	ldr	w0, [x25, 252]
.LVL1409:
	sub	w0, w0, #3
	cmp	w0, 1
	bls	.L1627
.L1391:
	.loc 1 2681 0
	ldr	w0, [x19, 40]
	sub	w1, w0, #7
	.loc 1 2680 0
	cmp	w1, 1
	bls	.L1628
.L1392:
	.loc 1 2695 0
	sub	w0, w0, #2
	.loc 1 2694 0
	cmp	w0, 14
	bhi	.L1394
	ldr	x0, [x25, 216]
.LBB2375:
.LBB2376:
	.loc 1 2288 0
	ldr	w1, [x25, 28]
	ldr	x4, [x19, 16]
	cmp	w1, 0
	ldr	x5, [x0, 16]
	add	w0, w1, 7
	csel	w0, w0, w1, lt
	asr	w0, w0, 3
	cmp	w0, 0
	ble	.L1396
	.loc 1 2292 0
	ldr	x2, [x4]
	ldr	x1, [x5]
	cmp	x2, x1
	bne	.L1394
	sub	w1, w0, #1
	mov	x0, 8
	add	x1, x1, 1
	lsl	x1, x1, 3
	b	.L1398
.L1399:
	.loc 1 2289 0
	ldr	x3, [x4, x0]
	add	x0, x0, 8
	.loc 1 2290 0
	add	x2, x5, x0
	.loc 1 2292 0
	ldr	x2, [x2, -8]
	cmp	x3, x2
	bne	.L1394
.L1398:
	.loc 1 2288 0
	cmp	x1, x0
	bne	.L1399
.L1396:
.LBE2376:
.LBE2375:
	.loc 1 2697 0
	ldr	x0, [x25, 104]
	adrp	x1, .LC118
	add	x1, x1, :lo12:.LC118
	bl	_dev_info
.LVL1410:
	.loc 1 2699 0
	str	x19, [x25, 224]
	ldr	w0, [x19, 40]
	.loc 1 2784 0
	cmp	w0, 20
	bne	.L1413
.LVL1411:
.L1643:
	.loc 1 2785 0
	mov	w0, 1
	str	w0, [x25, 592]
	.loc 1 2787 0
	ldr	x0, [x25, 104]
	adrp	x1, .LC121
	.loc 1 2786 0
	str	wzr, [x25, 612]
	.loc 1 2787 0
	add	x1, x1, :lo12:.LC121
	bl	_dev_info
.LVL1412:
	.loc 1 2797 0
	ldr	w0, [x25, 468]
	cbz	w0, .L1416
.L1645:
	.loc 1 2798 0
	ldr	x0, [x25, 216]
	bl	ebc_buf_release
.LVL1413:
	b	.L1417
.L1327:
	.loc 1 2501 0
	ldr	w1, [x19, 40]
	cmp	w1, 16
	bne	.L1329
	.loc 1 2502 0
	mov	w1, 21
	str	w1, [x19, 40]
.L1330:
	.loc 1 2510 0
	cmp	w0, 1
	beq	.L1331
	.loc 1 2511 0
	ldr	w1, [x25, 596]
	cbnz	w1, .L1332
	.loc 1 2511 0 is_stmt 0 discriminator 1
	ldr	w1, [x25, 252]
	cmp	w1, 4
	beq	.L1629
.L1331:
	.loc 1 2609 0 is_stmt 1
	ldr	w0, [x25, 468]
	cbnz	w0, .L1436
.L1435:
	.loc 1 2610 0
	str	x19, [x25, 216]
.L1436:
	.loc 1 2612 0
	ldr	w2, [x19, 40]
	cmp	w2, 11
	bgt	.L1367
	cmp	w2, 7
	bge	.L1442
	cmp	w2, 0
	beq	.L1369
	blt	.L1366
	cmp	w2, 2
	bge	.L1370
.L1366:
	.loc 1 2775 0
	ldr	x0, [x25, 104]
	adrp	x1, .LC120
	add	x1, x1, :lo12:.LC120
	.loc 1 2778 0
	mov	w26, 0
	.loc 1 2775 0
	bl	_dev_err
.LVL1414:
	.loc 1 2776 0
	mov	x0, x19
	bl	ebc_buf_release
.LVL1415:
	.loc 1 2778 0
	b	.L1255
.LVL1416:
.L1306:
	.loc 1 2403 0
	adrp	x0, .LANCHOR0
	add	x0, x0, :lo12:.LANCHOR0
	ldr	x0, [x0, 8]
	bl	wake_up_process
.LVL1417:
	b	.L1308
.L1614:
	.loc 1 2378 0 discriminator 1
	ldr	w0, [x25, 52]
	cbz	w0, .L1263
	.loc 1 2380 0
	ldr	x0, [x25, 104]
	adrp	x1, .LC103
	add	x1, x1, :lo12:.LC103
	bl	_dev_info
.LVL1418:
.LBB2377:
	.loc 1 2381 0
	ldr	w0, [x25, 52]
	cbnz	w0, .L1630
.L1266:
.LVL1419:
.L1264:
.LBE2377:
	.loc 1 2382 0 discriminator 11
	ldr	x0, [x25, 104]
.LVL1420:
	adrp	x1, .LC104
	add	x1, x1, :lo12:.LC104
	bl	_dev_info
.LVL1421:
	b	.L1263
.L1312:
	.loc 1 2452 0
	ldr	w0, [x0, 40]
	cmp	w0, 18
	beq	.L1631
	.loc 1 2462 0
	cmp	w0, 19
	beq	.L1632
	.loc 1 2477 0
	cmp	w0, 20
	beq	.L1633
	.loc 1 2485 0
	adrp	x0, .LANCHOR0
	add	x0, x0, :lo12:.LANCHOR0
	ldr	w1, [x0, 32]
	cbz	w1, .L1314
	.loc 1 2486 0
	ldr	w1, [x0, 36]
	cmp	w1, 5
	add	w1, w1, 1
	str	w1, [x0, 36]
	ble	.L1325
	.loc 1 2487 0
	str	wzr, [x0, 32]
.L1325:
	.loc 1 2488 0
	ldr	w1, [x24, 220]
	ldr	x0, [x19, 16]
	bl	check_black_percent.isra.11
.LVL1422:
	cbz	w0, .L1314
.L1591:
	.loc 1 2552 0
	mov	x0, x19
.L1592:
	bl	ebc_buf_release
.LVL1423:
	.loc 1 2554 0
	b	.L1255
.LVL1424:
.L1617:
	.loc 1 2395 0
	mov	x0, x24
	bl	ebc_power_set.constprop.15
.LVL1425:
	b	.L1307
.L1613:
	.loc 1 2376 0
	ldr	x0, [x25, 216]
	ldrsw	x2, [x25, 28]
	ldr	x1, [x0, 16]
	ldr	x0, [x25, 160]
	bl	memcpy
.LVL1426:
	.loc 1 2377 0
	ldr	x0, [x25, 224]
	ldrsw	x2, [x25, 28]
	ldr	x1, [x0, 16]
	ldr	x0, [x25, 152]
	bl	memcpy
.LVL1427:
	b	.L1263
.L1313:
	.loc 1 2418 0
	adrp	x2, .LANCHOR0
	add	x20, x2, :lo12:.LANCHOR0
.LVL1428:
	ldr	w2, [x20, 32]
	cbz	w2, .L1315
	.loc 1 2419 0
	ldr	w0, [x20, 36]
	cmp	w0, 5
	add	w0, w0, 1
	str	w0, [x20, 36]
	ble	.L1325
	.loc 1 2420 0
	str	wzr, [x20, 32]
	b	.L1325
.LVL1429:
.L1332:
	.loc 1 2512 0
	ldr	w1, [x25, 252]
	sub	w2, w1, #1
	cmp	w2, 1
	bls	.L1634
	.loc 1 2515 0
	cmp	w1, 3
	beq	.L1635
.L1333:
	.loc 1 2521 0
	cbnz	w0, .L1339
.L1649:
	.loc 1 2522 0
	ldr	w3, [x25, 88]
	.loc 1 2523 0
	sub	w0, w3, #1
	.loc 1 2522 0
	cmp	w0, 99
	bhi	.L1340
.LBB2380:
	.loc 1 2524 0
	ldr	x0, [x25, 216]
	ldr	w2, [x24, 220]
	ldr	x1, [x0, 16]
	ldr	x0, [x19, 16]
	bl	check_diff_percent.isra.12
.LVL1430:
	.loc 1 2525 0
	cmp	w0, 2
	beq	.L1636
.L1340:
.LBE2380:
	.loc 1 2540 0
	bl	ebc_get_dsp_list_enum_num
.LVL1431:
	mov	w26, w0
	cbnz	w0, .L1637
	.loc 1 2545 0
	ldr	w2, [x25, 248]
	cmp	w2, 0
	ble	.L1339
	.loc 1 2547 0
	ldr	x0, [x25, 104]
	adrp	x1, .LC112
	.loc 1 2546 0
	str	wzr, [x25, 100]
	.loc 1 2547 0
	add	x1, x1, :lo12:.LC112
	bl	_dev_info
.LVL1432:
.LBB2381:
.LBB2382:
.LBB2383:
	.file 17 "./include/linux/jiffies.h"
	.loc 17 368 0
	ldr	w0, [x25, 248]
	bl	__msecs_to_jiffies
.LVL1433:
.LBE2383:
.LBE2382:
.LBB2384:
	.loc 1 2548 0
	ldr	w1, [x25, 100]
	cmp	w1, 0
	cset	w1, ne
.LVL1434:
	cmp	x0, 0
	cset	w0, eq
	tst	w1, w0
	beq	.L1638
.L1344:
.LVL1435:
.L1342:
.LBE2384:
.LBE2381:
	.loc 1 2550 0 discriminator 17
	bl	ebc_get_dsp_list_enum_num
.LVL1436:
	cbnz	w0, .L1593
.L1339:
	ldr	w1, [x19, 40]
	sub	w1, w1, #12
	cmp	w1, 11
	bhi	.L1639
	adrp	x0, .LANCHOR3
	add	x0, x0, :lo12:.LANCHOR3
	add	x0, x0, 56
	ldr	w1, [x0, w1, uxtw 2]
	.loc 1 2560 0
	ldr	w0, [x25, 144]
	cmp	w0, 7
	beq	.L1640
.LVL1437:
	cmp	w1, 12
	cset	w2, eq
	.loc 1 2561 0
	cmp	w0, 1
	beq	.L1641
.L1437:
	.loc 1 2562 0
	cmp	w0, 2
	cset	w0, eq
	tst	w2, w0
	bne	.L1347
.L1350:
	.loc 1 2576 0
	mov	w0, 4
	.loc 1 2577 0
	str	x19, [x25, 224]
	.loc 1 2576 0
	str	w0, [x25, 252]
	.loc 1 2578 0
	mov	x5, x25
	ldr	x0, [x25, 152]
	ldr	x1, [x25, 16]
.LVL1438:
	ldp	x3, x4, [x25, 168]
	ldr	x2, [x19, 16]
	bl	refresh_new_image
.LVL1439:
	.loc 1 2584 0
	ldr	w0, [x25, 52]
	cbz	w0, .L1642
	.loc 1 2594 0
	ldr	x0, [x25, 224]
	ldr	w0, [x0, 40]
	.loc 1 2596 0
	cmp	w0, 0
	.loc 1 2595 0
	sub	w1, w0, #22
	.loc 1 2596 0
	ccmp	w1, 1, 0, ne
	bhi	.L1438
.L1365:
	.loc 1 2784 0
	cmp	w0, 20
	beq	.L1643
.L1413:
	.loc 1 2788 0
	cmp	w0, 18
	beq	.L1644
.L1414:
	.loc 1 2797 0
	ldr	w0, [x25, 468]
	cbnz	w0, .L1645
.L1416:
	.loc 1 2800 0
	mov	w0, 1
	str	w0, [x25, 468]
.L1417:
	.loc 1 2802 0
	ldr	x0, [x25, 224]
	mov	w26, 0
	str	x0, [x25, 216]
	b	.L1255
.L1329:
	.loc 1 2503 0
	cmp	w0, 2
	bne	.L1330
	.loc 1 2505 0
	mov	w0, 1
	str	w0, [x19, 64]
	.loc 1 2504 0
	mov	w0, 4
	str	w0, [x19, 40]
	b	.L1328
.LVL1440:
.L1315:
	.loc 1 2426 0
	ldr	x2, [x25, 584]
	cbz	x2, .L1314
	.loc 1 2427 0
	cmp	w1, 19
	bne	.L1592
	.loc 1 2428 0
	str	wzr, [x25, 584]
	.loc 1 2429 0
	mov	x0, 3
	bl	ebc_notify
.LVL1441:
	.loc 1 2430 0
	ldr	x0, [x25, 104]
	adrp	x1, .LC106
	add	x1, x1, :lo12:.LC106
	bl	_dev_info
.LVL1442:
	.loc 1 2431 0
	ldr	w0, [x25, 608]
	cbz	w0, .L1314
	.loc 1 2432 0
	mov	w0, 1
	.loc 1 2434 0
	ldr	w1, [x24, 220]
	.loc 1 2433 0
	stp	w0, wzr, [x20, 32]
	.loc 1 2434 0
	ldr	x0, [x19, 16]
	bl	check_black_percent.isra.11
.LVL1443:
	cbz	w0, .L1314
	b	.L1587
.LVL1444:
	.p2align 3
.L1639:
	.loc 1 2560 0
	ldr	w0, [x25, 144]
	cmp	w0, 7
	beq	.L1347
	.loc 1 2561 0
	mov	w2, 1
	cmp	w0, 1
	bne	.L1437
.LVL1445:
.L1347:
	.loc 1 2563 0
	ldr	w0, [x25, 52]
	cbz	w0, .L1350
.L1668:
	.loc 1 2564 0
	ldr	x0, [x25, 104]
	adrp	x1, .LC103
.LVL1446:
	add	x1, x1, :lo12:.LC103
	bl	_dev_info
.LVL1447:
.LBB2392:
	.loc 1 2565 0
	ldr	w0, [x25, 52]
	cbnz	w0, .L1646
.L1354:
.LVL1448:
.L1352:
.LBE2392:
	.loc 1 2566 0 discriminator 11
	bl	ebc_get_dsp_list_enum_num
.LVL1449:
	cbz	w0, .L1356
	.loc 1 2566 0 is_stmt 0 discriminator 1
	ldr	w26, [x19, 64]
.LVL1450:
	cbz	w26, .L1593
.L1356:
	.loc 1 2572 0 is_stmt 1
	ldr	x0, [x25, 104]
	adrp	x1, .LC104
	add	x1, x1, :lo12:.LC104
	bl	_dev_info
.LVL1451:
	b	.L1350
.LVL1452:
.L1610:
.LBB2395:
.LBB2312:
	.loc 1 2808 0
	mov	w1, 0
	add	x0, x29, 112
	bl	init_wait_entry
.LVL1453:
.LBB2307:
	ldr	x20, [x29, 104]
.LVL1454:
	mov	w2, 1
	add	x1, x29, 112
	mov	x0, x20
	bl	prepare_to_wait_event
.LVL1455:
.LBB2301:
	ldr	w1, [x25, 100]
.LBE2301:
.LBE2307:
	mov	x19, 60
.LBB2308:
.LBB2302:
	mov	w2, 0
	cmp	w1, 0
	cset	w1, ne
.LVL1456:
.L1422:
.LBE2302:
	.loc 1 2808 0 is_stmt 0 discriminator 9
	orr	w1, w1, w2
.LVL1457:
	cbnz	w1, .L1421
.LVL1458:
	.loc 1 2808 0 discriminator 11
	cbnz	x0, .L1420
	.loc 1 2808 0 discriminator 13
	mov	x0, x19
.LVL1459:
	bl	schedule_timeout
.LVL1460:
	mov	w2, 1
	mov	x19, x0
	add	x1, x29, 112
	mov	x0, x20
	bl	prepare_to_wait_event
.LVL1461:
.LBB2303:
	ldr	w1, [x25, 100]
	cmp	w1, 0
	cset	w1, ne
.LVL1462:
	cmp	x19, 0
	cset	w2, eq
	tst	w1, w2
	beq	.L1422
.L1421:
.LBE2303:
.LBE2308:
	.loc 1 2808 0
	ldr	x0, [x29, 104]
	add	x1, x29, 112
.LVL1463:
	bl	finish_wait
.LVL1464:
.L1420:
.LBE2312:
.LBE2395:
	.loc 1 2809 0 is_stmt 1 discriminator 16
	ldr	w0, [x25, 100]
.LVL1465:
	cbnz	w0, .L1255
	.loc 1 2816 0
	ldr	w0, [x25, 52]
	cmp	w0, 1
	bne	.L1424
.LBB2396:
.LBB2397:
	.loc 1 2817 0 discriminator 3
	mov	w1, 0
	add	x0, x29, 112
	bl	init_wait_entry
.LVL1466:
.LBB2398:
	ldr	x0, [x29, 104]
	add	x1, x29, 112
	mov	w2, 1
	bl	prepare_to_wait_event
.LVL1467:
	ldr	w1, [x25, 52]
	cbz	w1, .L1425
.L1647:
	.loc 1 2817 0 is_stmt 0 discriminator 7
	ldr	w1, [x25, 100]
	cbnz	w1, .L1425
.LVL1468:
	.loc 1 2817 0 discriminator 9
	cbnz	x0, .L1426
	.loc 1 2817 0 discriminator 11
	bl	schedule
.LVL1469:
	ldr	x0, [x29, 104]
	add	x1, x29, 112
	mov	w2, 1
	bl	prepare_to_wait_event
.LVL1470:
	ldr	w1, [x25, 52]
	cbnz	w1, .L1647
.L1425:
.LBE2398:
	.loc 1 2817 0 discriminator 8
	ldr	x0, [x29, 104]
	add	x1, x29, 112
	bl	finish_wait
.LVL1471:
.L1426:
.LBE2397:
.LBE2396:
	.loc 1 2819 0 is_stmt 1 discriminator 14
	bl	ebc_get_dsp_list_enum_num
.LVL1472:
	cbnz	w0, .L1255
	.loc 1 2819 0 is_stmt 0 discriminator 1
	bl	ebc_get_osd_list_enum_num
.LVL1473:
	cbnz	w0, .L1255
	.loc 1 2821 0 is_stmt 1
	ldr	w0, [x25, 52]
	cbnz	w0, .L1429
.L1604:
	.loc 1 2828 0
	ldr	w0, [x25, 200]
	cmp	w0, 1
	bne	.L1429
.LBB2399:
.LBB2400:
	mov	w1, 0
	mov	x0, x24
	bl	ebc_power_set.part.7
.LVL1474:
.L1429:
.LBE2400:
.LBE2399:
	.loc 1 2831 0
	ldr	w0, [x25, 100]
	cbnz	w0, .L1431
.LBB2401:
.LBB2402:
	.loc 1 2832 0 discriminator 1
	mov	w1, 0
	add	x0, x29, 112
	bl	init_wait_entry
.LVL1475:
.L1434:
.LBB2403:
	.loc 1 2832 0 is_stmt 0 discriminator 9
	ldr	x0, [x29, 104]
	add	x1, x29, 112
	mov	w2, 1
	bl	prepare_to_wait_event
.LVL1476:
	ldr	w1, [x25, 100]
	cbnz	w1, .L1432
.LVL1477:
	.loc 1 2832 0 discriminator 5
	cbnz	x0, .L1431
	.loc 1 2832 0 discriminator 7
	bl	schedule
.LVL1478:
.LBE2403:
	b	.L1434
.LVL1479:
	.p2align 3
.L1442:
.LBE2402:
.LBE2401:
	.loc 1 2672 0 is_stmt 1
	ldr	w0, [x25, 52]
	.loc 1 2612 0
	mov	w20, 0
.LVL1480:
	.loc 1 2672 0
	cbz	w0, .L1386
.L1626:
	.loc 1 2673 0
	ldr	x0, [x25, 104]
	adrp	x1, .LC117
	add	x1, x1, :lo12:.LC117
	bl	_dev_info
.LVL1481:
.LBB2405:
	.loc 1 2674 0
	ldr	w0, [x25, 52]
	cbz	w0, .L1386
.LBB2406:
	.loc 1 2674 0 is_stmt 0 discriminator 1
	mov	w1, 0
	add	x0, x29, 112
	bl	init_wait_entry
.LVL1482:
	b	.L1390
.L1648:
.LVL1483:
.LBB2407:
	.loc 1 2674 0 discriminator 5
	cbnz	x0, .L1386
	.loc 1 2674 0 discriminator 7
	bl	schedule
.LVL1484:
.L1390:
	.loc 1 2674 0 discriminator 9
	ldr	x0, [x29, 104]
	add	x1, x29, 112
	mov	w2, 1
	bl	prepare_to_wait_event
.LVL1485:
	ldr	w1, [x25, 52]
	cbnz	w1, .L1648
.LBE2407:
	.loc 1 2674 0 discriminator 4
	ldr	x0, [x29, 104]
	add	x1, x29, 112
	bl	finish_wait
.LVL1486:
	b	.L1386
.LVL1487:
	.p2align 3
.L1629:
.LBE2406:
.LBE2405:
	.loc 1 2511 0 is_stmt 1 discriminator 2
	ldr	w1, [x25, 52]
	cbz	w1, .L1331
	.loc 1 2521 0
	cbnz	w0, .L1339
	b	.L1649
.L1635:
	.loc 1 2515 0 discriminator 1
	ldr	w1, [x25, 52]
	cbz	w1, .L1333
	.loc 1 2517 0
	ldr	x0, [x25, 104]
	adrp	x1, .LC103
	add	x1, x1, :lo12:.LC103
	bl	_dev_info
.LVL1488:
.LBB2408:
	.loc 1 2518 0
	ldr	w0, [x25, 52]
	cbnz	w0, .L1650
.L1337:
.LVL1489:
.L1335:
.LBE2408:
	.loc 1 2519 0 discriminator 11
	ldr	x0, [x25, 104]
.LVL1490:
	adrp	x1, .LC104
	add	x1, x1, :lo12:.LC104
	bl	_dev_info
.LVL1491:
	ldr	w0, [x19, 64]
	.loc 1 2521 0 discriminator 11
	cbnz	w0, .L1339
	b	.L1649
.LVL1492:
.L1628:
	.loc 1 2682 0
	ldr	w3, [x25, 88]
	.loc 1 2683 0
	sub	w1, w3, #1
	cmp	w1, 99
	bhi	.L1392
.LBB2411:
	.loc 1 2684 0
	ldr	x0, [x25, 216]
	ldr	w2, [x24, 220]
	ldr	x1, [x0, 16]
	ldr	x0, [x19, 16]
	bl	check_diff_percent.isra.12
.LVL1493:
	mov	w21, w0
	.loc 1 2685 0
	cbz	w0, .L1396
	.loc 1 2690 0
	cmp	w0, 2
	beq	.L1598
.L1394:
.LBE2411:
	.loc 1 2705 0
	cbnz	w20, .L1443
	.loc 1 2709 0
	ldr	w0, [x25, 84]
	.loc 1 2704 0
	mov	w21, 1
	.loc 1 2709 0
	cmp	w0, 0
	ble	.L1395
	.loc 1 2710 0
	ldr	w1, [x29, 100]
.LVL1494:
	add	w1, w1, w21
.LVL1495:
	str	w1, [x29, 100]
	.loc 1 2711 0
	cmp	w0, w1
	ble	.L1651
.LVL1496:
.L1395:
	.loc 1 2718 0
	ldr	w0, [x25, 200]
	cbz	w0, .L1652
.L1400:
	.loc 1 2721 0
	ldr	w1, [x19, 40]
.LVL1497:
	mov	x0, x24
	bl	ebc_lut_update
.LVL1498:
	.loc 1 2723 0
	ldr	w0, [x19, 64]
	cbnz	w0, .L1401
	.loc 1 2725 0
	bl	ebc_get_dsp_list_enum_num
.LVL1499:
	cbnz	w0, .L1602
	.loc 1 2739 0
	ldr	w0, [x19, 40]
	.loc 1 2741 0
	and	w1, w0, -3
	cmp	w1, 16
	ccmp	w0, 20, 4, ne
	beq	.L1401
	.loc 1 2742 0
	ldr	w2, [x25, 248]
	cmp	w2, 0
	ble	.L1401
	.loc 1 2743 0
	ldr	x0, [x25, 104]
	adrp	x1, .LC112
	add	x1, x1, :lo12:.LC112
	bl	_dev_info
.LVL1500:
.LBB2412:
.LBB2413:
.LBB2414:
	.loc 17 368 0
	ldr	w0, [x25, 248]
	bl	__msecs_to_jiffies
.LVL1501:
.LBE2414:
.LBE2413:
.LBB2415:
	.loc 1 2744 0
	ldr	w1, [x25, 596]
	cmp	w1, 0
	cset	w1, ne
.LVL1502:
	cmp	x0, 0
	cset	w0, eq
	tst	w1, w0
	bne	.L1404
.LBE2415:
	.loc 1 2744 0 is_stmt 0 discriminator 3
	orr	w1, w1, w0
.LVL1503:
	cbnz	w1, .L1404
.LBB2416:
.LBB2417:
.LBB2418:
	.loc 17 368 0 is_stmt 1 discriminator 4
	ldr	w0, [x25, 248]
	bl	__msecs_to_jiffies
.LVL1504:
	mov	x20, x0
.LVL1505:
.LBE2418:
.LBE2417:
	.loc 1 2744 0 discriminator 4
	mov	w1, 0
	add	x0, x29, 112
	bl	init_wait_entry
.LVL1506:
.L1407:
.LBB2419:
	.loc 1 2744 0 is_stmt 0 discriminator 15
	ldr	x0, [x29, 104]
	mov	w2, 1
	add	x1, x29, 112
	bl	prepare_to_wait_event
.LVL1507:
.LBB2420:
	ldr	w1, [x25, 596]
	cmp	w1, 0
	cset	w1, ne
.LVL1508:
	cmp	x20, 0
	cset	w2, eq
	tst	w1, w2
	beq	.L1653
.L1405:
.LBE2420:
.LBE2419:
	.loc 1 2744 0 discriminator 10
	ldr	x0, [x29, 104]
	add	x1, x29, 112
.LVL1509:
	bl	finish_wait
.LVL1510:
.L1406:
.L1404:
.LBE2416:
.LBE2412:
	.loc 1 2746 0 is_stmt 1 discriminator 17
	bl	ebc_get_dsp_list_enum_num
.LVL1511:
	cbnz	w0, .L1602
.L1401:
	.loc 1 2765 0
	ldr	w3, [x25, 112]
	.loc 1 2766 0
	adrp	x1, .LC119
	.loc 1 2765 0
	strb	w3, [x25, 56]
	.loc 1 2766 0
	add	x1, x1, :lo12:.LC119
	.loc 1 2764 0
	str	x19, [x25, 224]
	.loc 1 2766 0
	and	w3, w3, 255
	ldr	x0, [x25, 104]
	.loc 1 2770 0
	adrp	x20, jiffies
.LVL1512:
	.loc 1 2766 0
	ldr	w2, [x19, 40]
	.loc 1 2770 0
	add	x19, x24, 720
	.loc 1 2766 0
	bl	_dev_info
.LVL1513:
	.loc 1 2768 0
	str	w21, [x25, 252]
	.loc 1 2767 0
	mov	w0, 1
	str	w0, [x25, 52]
	.loc 1 2769 0
	mov	x0, x24
	bl	ebc_frame_start
.LVL1514:
	.loc 1 2770 0
	ldr	x1, [x20, #:lo12:jiffies]
	mov	x0, x19
	add	x1, x1, 900
	bl	mod_timer
.LVL1515:
.LBB2423:
	.loc 1 2771 0
	ldr	w0, [x25, 52]
	cbnz	w0, .L1654
.L1411:
.LVL1516:
.L1409:
.LBE2423:
	.loc 1 2772 0 discriminator 11
	ldr	x2, [x20, #:lo12:jiffies]
	mov	x0, x19
.LVL1517:
	mov	x1, 402653184
	add	x1, x2, x1
	bl	mod_timer
.LVL1518:
	ldr	x0, [x25, 224]
	ldr	w0, [x0, 40]
	.loc 1 2773 0 discriminator 11
	b	.L1365
.LVL1519:
.L1443:
	.loc 1 2718 0
	ldr	w0, [x25, 200]
	.loc 1 2708 0
	mov	w21, 2
	.loc 1 2706 0
	str	wzr, [x29, 100]
	.loc 1 2718 0
	cbnz	w0, .L1400
.LVL1520:
.L1652:
	.loc 1 2719 0
	mov	x0, x24
	bl	ebc_power_set.constprop.15
.LVL1521:
	b	.L1400
.LVL1522:
.L1367:
	.loc 1 2612 0
	cmp	w2, 21
	ble	.L1370
	cmp	w2, 23
	bgt	.L1366
.L1369:
	.loc 1 2617 0
	ldr	w0, [x25, 252]
	.loc 1 2616 0
	str	x19, [x25, 224]
	.loc 1 2617 0
	sub	w1, w0, #1
	cmp	w1, 1
	bls	.L1655
	.loc 1 2620 0
	cmp	w0, 4
	beq	.L1656
	.loc 1 2626 0
	ldr	x0, [x25, 216]
	ldr	w1, [x19, 40]
	ldr	w0, [x0, 40]
	cmp	w1, w0
	beq	.L1374
	.loc 1 2626 0 is_stmt 0 discriminator 1
	ldr	w0, [x25, 52]
	cbnz	w0, .L1657
.L1381:
.L1374:
	.loc 1 2633 0 is_stmt 1
	ldr	x1, [x19, 16]
	mov	x3, x25
	ldr	x0, [x25, 152]
	ldr	x2, [x25, 168]
	bl	refresh_new_image_auto
.LVL1523:
.L1372:
	.loc 1 2639 0
	ldr	w0, [x25, 52]
	.loc 1 2638 0
	mov	w1, 3
	str	w1, [x25, 252]
	.loc 1 2639 0
	cbnz	w0, .L1599
	.loc 1 2640 0
	mov	w0, 1
	str	w0, [x25, 52]
	.loc 1 2641 0
	ldr	w0, [x25, 200]
	cbz	w0, .L1658
.L1384:
	.loc 1 2643 0
	ldr	w1, [x19, 40]
	mov	x0, x24
	bl	ebc_lut_update
.LVL1524:
	.loc 1 2645 0
	ldr	w1, [x25, 112]
	.loc 1 2647 0
	ldr	x0, [x25, 104]
	.loc 1 2645 0
	strb	w1, [x25, 56]
	.loc 1 2647 0
	and	w2, w1, 255
	.loc 1 2646 0
	lsr	w1, w1, 8
	strb	w1, [x25, 57]
	.loc 1 2647 0
	adrp	x1, .LC116
	add	x1, x1, :lo12:.LC116
	bl	_dev_info
.LVL1525:
	.loc 1 2648 0
	mov	x0, x24
	bl	ebc_frame_start
.LVL1526:
.L1599:
	ldr	x0, [x25, 224]
	ldr	w0, [x0, 40]
	b	.L1365
.L1631:
	.loc 1 2453 0
	ldr	x0, [x25, 104]
	adrp	x1, .LC107
	add	x1, x1, :lo12:.LC107
	bl	_dev_info
.LVL1527:
	.loc 1 2454 0
	ldr	w0, [x25, 584]
	cbnz	w0, .L1320
	.loc 1 2455 0
	mov	x0, 2
	bl	ebc_notify
.LVL1528:
.L1320:
	.loc 1 2457 0
	mov	w0, 1
	str	w0, [x25, 584]
.L1590:
	.loc 1 2456 0
	adrp	x1, .LANCHOR0
	add	x1, x1, :lo12:.LANCHOR0
	.loc 1 2458 0
	str	wzr, [x25, 612]
	.loc 1 2459 0
	mov	x0, x19
	.loc 1 2456 0
	str	wzr, [x1, 32]
	.loc 1 2552 0
	bl	ebc_buf_release
.LVL1529:
	b	.L1255
.L1630:
.LBB2426:
.LBB2378:
	.loc 1 2381 0 discriminator 1
	mov	w1, 0
	add	x0, x29, 112
	bl	init_wait_entry
.LVL1530:
	ldr	x20, [x29, 104]
.LVL1531:
	b	.L1267
.L1659:
.LVL1532:
.LBB2379:
	.loc 1 2381 0 is_stmt 0 discriminator 5
	cbnz	x0, .L1264
	.loc 1 2381 0 discriminator 7
	bl	schedule
.LVL1533:
.L1267:
	.loc 1 2381 0 discriminator 9
	add	x1, x29, 112
	mov	w2, 1
	mov	x0, x20
	bl	prepare_to_wait_event
.LVL1534:
	ldr	w1, [x25, 52]
	cbnz	w1, .L1659
.LBE2379:
	.loc 1 2381 0 discriminator 4
	ldr	x0, [x29, 104]
	add	x1, x29, 112
	bl	finish_wait
.LVL1535:
	b	.L1264
.L1654:
.LBE2378:
.LBE2426:
.LBB2427:
.LBB2424:
	.loc 1 2771 0 is_stmt 1 discriminator 1
	mov	w1, 0
	add	x0, x29, 112
	bl	init_wait_entry
.LVL1536:
	b	.L1412
.L1660:
.LVL1537:
.LBB2425:
	.loc 1 2771 0 is_stmt 0 discriminator 5
	cbnz	x0, .L1409
	.loc 1 2771 0 discriminator 7
	bl	schedule
.LVL1538:
.L1412:
	.loc 1 2771 0 discriminator 9
	ldr	x0, [x29, 104]
	add	x1, x29, 112
	mov	w2, 1
	bl	prepare_to_wait_event
.LVL1539:
	ldr	w1, [x25, 52]
	cbnz	w1, .L1660
.LBE2425:
	.loc 1 2771 0 discriminator 4
	ldr	x0, [x29, 104]
	add	x1, x29, 112
	bl	finish_wait
.LVL1540:
	b	.L1409
.LVL1541:
.L1602:
.LBE2424:
.LBE2427:
	.loc 1 2747 0 is_stmt 1
	ldr	w0, [x19, 40]
	sub	w0, w0, #19
	tst	w0, -3
	beq	.L1594
	.loc 1 2753 0
	ldr	w26, [x19, 64]
.LVL1542:
	cbnz	w26, .L1401
.LVL1543:
.L1593:
	.loc 1 2551 0
	ldr	x0, [x25, 104]
	adrp	x1, .LC111
	add	x1, x1, :lo12:.LC111
	bl	_dev_info
.LVL1544:
	.loc 1 2552 0
	mov	x0, x19
	b	.L1592
.L1642:
	.loc 1 2585 0
	mov	w0, 1
	str	w0, [x25, 52]
	.loc 1 2588 0
	mov	x0, x24
	ldr	w1, [x19, 40]
	bl	ebc_lut_update
.LVL1545:
	.loc 1 2589 0
	ldr	w3, [x25, 112]
	.loc 1 2591 0
	adrp	x1, .LC113
	ldr	x2, [x25, 224]
	add	x1, x1, :lo12:.LC113
	.loc 1 2589 0
	strb	w3, [x25, 56]
	.loc 1 2590 0
	lsr	w4, w3, 8
	strb	w4, [x25, 57]
	.loc 1 2591 0
	ldr	x0, [x25, 104]
	and	w3, w3, 255
	ldr	w2, [x2, 40]
	bl	_dev_info
.LVL1546:
.LBB2428:
.LBB2429:
	.loc 1 1595 0
	ldr	w0, [x27, 164]
	.loc 1 1596 0
	mov	w6, 1
	ldp	x1, x2, [x25, 152]
	ldp	x3, x4, [x25, 168]
	.loc 1 1595 0
	cbz	w0, .L1358
	.loc 1 1596 0
	ldr	x0, [x25, 184]
	mov	x5, x25
	bl	get_overlay_image2
.LVL1547:
	.loc 1 1611 0
	ldr	w0, [x25, 60]
	cbz	w0, .L1360
.L1665:
	.loc 1 1612 0
	ldr	w0, [x25, 200]
	cbz	w0, .L1661
.L1361:
	.loc 1 1614 0
	ldr	w0, [x27, 164]
	.loc 1 1615 0
	mov	w6, 1
	ldp	x1, x2, [x25, 152]
	ldp	x3, x4, [x25, 168]
	.loc 1 1614 0
	cbz	w0, .L1362
	.loc 1 1615 0
	ldr	x0, [x25, 192]
	mov	x5, x25
	bl	get_overlay_image2
.LVL1548:
.L1363:
.LBB2430:
.LBB2431:
	.loc 1 1586 0
	str	wzr, [x27, 72]
	.loc 1 1587 0
	mov	x0, x27
	ldr	w1, [x24, 224]
	bl	flip.isra.4
.LVL1549:
.L1364:
.LBE2431:
.LBE2430:
.LBE2429:
.LBE2428:
	.loc 1 2594 0
	ldr	x0, [x25, 224]
	ldr	w0, [x0, 40]
	.loc 1 2596 0
	cmp	w0, 0
	.loc 1 2595 0
	sub	w1, w0, #22
	.loc 1 2596 0
	ccmp	w1, 1, 0, ne
	bls	.L1365
	.loc 1 2597 0
	ldr	w1, [x25, 52]
	cbz	w1, .L1365
.L1438:
	.loc 1 2600 0
	ldr	x0, [x25, 104]
	adrp	x1, .LC115
	.loc 1 2599 0
	str	wzr, [x25, 600]
	.loc 1 2600 0
	add	x1, x1, :lo12:.LC115
	bl	_dev_info
.LVL1550:
	.loc 1 2601 0
	ldrb	w1, [x25, 56]
	lsl	w0, w1, 3
	sub	w0, w0, w1
.LBB2435:
.LBB2436:
	.loc 17 368 0
	lsl	w0, w0, 1
	bl	__msecs_to_jiffies
.LVL1551:
.LBE2436:
.LBE2435:
	.loc 1 2601 0
	adrp	x1, jiffies
	ldr	x1, [x1, #:lo12:jiffies]
	add	x1, x1, x0
	add	x0, x24, 664
	bl	mod_timer
.LVL1552:
	ldr	x0, [x25, 224]
	ldr	w0, [x0, 40]
	b	.L1365
.L1644:
	.loc 1 2789 0
	ldr	x0, [x25, 104]
	adrp	x1, .LC122
	add	x1, x1, :lo12:.LC122
	bl	_dev_info
.LVL1553:
	.loc 1 2790 0
	ldr	w0, [x25, 584]
	cbz	w0, .L1662
	.loc 1 2793 0
	adrp	x0, .LANCHOR0
	add	x0, x0, :lo12:.LANCHOR0
	.loc 1 2792 0
	mov	w1, 1
	.loc 1 2794 0
	str	wzr, [x25, 612]
	.loc 1 2792 0
	str	w1, [x25, 584]
	.loc 1 2793 0
	str	wzr, [x0, 32]
	b	.L1414
.L1633:
	.loc 1 2478 0
	ldr	x0, [x25, 104]
	adrp	x1, .LC109
	add	x1, x1, :lo12:.LC109
	bl	_dev_info
.LVL1554:
	.loc 1 2480 0
	mov	w0, 1
	str	w0, [x25, 592]
	b	.L1590
.L1632:
	.loc 1 2463 0
	ldr	x0, [x25, 104]
	adrp	x1, .LC108
	add	x1, x1, :lo12:.LC108
	bl	_dev_info
.LVL1555:
	.loc 1 2464 0
	ldr	w0, [x25, 584]
	cmp	w0, 1
	beq	.L1663
.L1322:
	.loc 1 2467 0
	ldr	w0, [x25, 608]
	.loc 1 2466 0
	str	wzr, [x25, 584]
	.loc 1 2467 0
	cbz	w0, .L1591
	.loc 1 2468 0
	adrp	x0, .LANCHOR0
	add	x0, x0, :lo12:.LANCHOR0
	mov	w1, 1
	.loc 1 2469 0
	stp	w1, w1, [x0, 32]
	.loc 1 2552 0
	mov	x0, x19
	b	.L1592
.LVL1556:
.L1611:
.LBB2437:
.LBB2438:
	mov	w1, 0
	mov	x0, x24
	bl	ebc_power_set.part.7
.LVL1557:
	b	.L1257
.LVL1558:
.L1662:
.LBE2438:
.LBE2437:
	.loc 1 2791 0
	mov	x0, 2
	bl	ebc_notify
.LVL1559:
	.loc 1 2793 0
	adrp	x0, .LANCHOR0
	add	x0, x0, :lo12:.LANCHOR0
	.loc 1 2792 0
	mov	w1, 1
	.loc 1 2794 0
	str	wzr, [x25, 612]
	.loc 1 2792 0
	str	w1, [x25, 584]
	.loc 1 2793 0
	str	wzr, [x0, 32]
	b	.L1414
.LVL1560:
.L1651:
	.loc 1 2712 0
	mov	w21, 2
.LVL1561:
.L1598:
	str	w21, [x19, 40]
	.loc 1 2713 0
	str	wzr, [x29, 100]
	b	.L1395
.LVL1562:
.L1638:
.LBB2439:
	.loc 1 2548 0 discriminator 3
	orr	w1, w1, w0
.LVL1563:
	cbnz	w1, .L1342
.LBB2385:
.LBB2386:
.LBB2387:
	.loc 17 368 0 discriminator 4
	ldr	w0, [x25, 248]
	bl	__msecs_to_jiffies
.LVL1564:
	mov	x20, x0
.LVL1565:
.LBE2387:
.LBE2386:
	.loc 1 2548 0 discriminator 4
	mov	w1, 0
	add	x0, x29, 112
	bl	init_wait_entry
.LVL1566:
.L1345:
.LBB2388:
	.loc 1 2548 0 is_stmt 0 discriminator 15
	ldr	x0, [x29, 104]
	mov	w2, 1
	add	x1, x29, 112
	bl	prepare_to_wait_event
.LVL1567:
.LBB2389:
	ldr	w1, [x25, 100]
	cmp	w1, 0
	cset	w1, ne
.LVL1568:
	cmp	x20, 0
	cset	w2, eq
	tst	w1, w2
	beq	.L1664
.L1343:
.LBE2389:
.LBE2388:
	.loc 1 2548 0 discriminator 10
	ldr	x0, [x29, 104]
	add	x1, x29, 112
.LVL1569:
	bl	finish_wait
.LVL1570:
	b	.L1342
.LVL1571:
	.p2align 3
.L1358:
.LBE2385:
.LBE2439:
.LBB2440:
.LBB2432:
	.loc 1 1604 0 is_stmt 1
	ldr	x0, [x25, 184]
	mov	x5, x25
	bl	get_overlay_image
.LVL1572:
	.loc 1 1611 0
	ldr	w0, [x25, 60]
	cbnz	w0, .L1665
.L1360:
	.loc 1 1633 0
	mov	w0, 1
	str	w0, [x25, 600]
	.loc 1 1634 0
	ldr	x0, [x25, 104]
	adrp	x2, .LANCHOR3
	.loc 1 1632 0
	str	wzr, [x25, 52]
	.loc 1 1634 0
	add	x2, x2, :lo12:.LANCHOR3
	add	x2, x2, 104
	adrp	x1, .LC114
	add	x1, x1, :lo12:.LC114
	bl	_dev_info
.LVL1573:
	b	.L1364
.L1658:
.LBE2432:
.LBE2440:
	.loc 1 2642 0
	mov	x0, x24
	bl	ebc_power_set.constprop.15
.LVL1574:
	b	.L1384
.L1657:
	.loc 1 2628 0
	ldr	x0, [x25, 104]
	adrp	x1, .LC103
	add	x1, x1, :lo12:.LC103
	bl	_dev_info
.LVL1575:
.LBB2441:
	.loc 1 2629 0
	ldr	w0, [x25, 52]
	cbnz	w0, .L1666
.L1377:
.LVL1576:
.L1375:
.LBE2441:
	.loc 1 2624 0 discriminator 11
	ldr	x0, [x25, 104]
.LVL1577:
	adrp	x1, .LC104
	add	x1, x1, :lo12:.LC104
	bl	_dev_info
.LVL1578:
.L1597:
	.loc 1 2625 0 discriminator 11
	ldr	x0, [x25, 224]
	ldrsw	x2, [x25, 28]
	ldr	x1, [x0, 16]
	ldr	x0, [x25, 152]
	bl	memcpy
.LVL1579:
	b	.L1372
.L1636:
.LBB2444:
	.loc 1 2527 0
	mov	w0, 1
	str	w0, [x19, 64]
	.loc 1 2526 0
	mov	w0, 21
	str	w0, [x19, 40]
	.loc 1 2528 0
	bl	ebc_get_dsp_list_enum_num
.LVL1580:
	cbz	w0, .L1331
.L1594:
	.loc 1 2530 0
	ldr	x0, [x25, 104]
	adrp	x1, .LC110
	add	x1, x1, :lo12:.LC110
	bl	_dev_info
.LVL1581:
.L1587:
	.loc 1 2531 0
	mov	x0, x19
	.loc 1 2529 0
	mov	w26, 1
	.loc 1 2531 0
	bl	ebc_buf_release
.LVL1582:
	.loc 1 2533 0
	b	.L1255
.LVL1583:
	.p2align 3
.L1664:
.LBE2444:
.LBB2445:
.LBB2391:
.LBB2390:
	.loc 1 2548 0 discriminator 9
	orr	w1, w1, w2
.LVL1584:
	cbnz	w1, .L1343
.LVL1585:
	.loc 1 2548 0 is_stmt 0 discriminator 11
	cbnz	x0, .L1342
	.loc 1 2548 0 discriminator 13
	mov	x0, x20
.LVL1586:
	bl	schedule_timeout
.LVL1587:
	mov	x20, x0
.LBE2390:
	b	.L1345
.LVL1588:
.L1634:
.LBE2391:
.LBE2445:
	.loc 1 2513 0 is_stmt 1
	ldr	x0, [x25, 216]
	ldrsw	x2, [x25, 28]
	ldr	x1, [x0, 16]
	ldr	x0, [x25, 160]
	bl	memcpy
.LVL1589:
	.loc 1 2514 0
	ldr	x0, [x25, 224]
	ldrsw	x2, [x25, 28]
	ldr	x1, [x0, 16]
	ldr	x0, [x25, 152]
	bl	memcpy
.LVL1590:
	ldr	w0, [x19, 64]
	.loc 1 2521 0
	cbnz	w0, .L1339
	b	.L1649
.LVL1591:
.L1637:
	.loc 1 2541 0
	ldr	x0, [x25, 104]
.LVL1592:
	adrp	x1, .LC111
	add	x1, x1, :lo12:.LC111
	.loc 1 2544 0
	mov	w26, 0
	.loc 1 2541 0
	bl	_dev_info
.LVL1593:
	.loc 1 2542 0
	mov	x0, x19
	bl	ebc_buf_release
.LVL1594:
	.loc 1 2544 0
	b	.L1255
.L1656:
	.loc 1 2620 0 discriminator 1
	ldr	w0, [x25, 52]
	cbz	w0, .L1374
	.loc 1 2622 0
	ldr	x0, [x25, 104]
	adrp	x1, .LC103
	add	x1, x1, :lo12:.LC103
	bl	_dev_info
.LVL1595:
.LBB2446:
	.loc 1 2623 0
	ldr	w0, [x25, 52]
	cbz	w0, .L1375
.LBB2447:
	.loc 1 2623 0 is_stmt 0 discriminator 1
	mov	w1, 0
	add	x0, x29, 112
	bl	init_wait_entry
.LVL1596:
	b	.L1378
	.p2align 3
.L1667:
.LVL1597:
.LBB2448:
	.loc 1 2623 0 discriminator 5
	cbnz	x0, .L1375
	.loc 1 2623 0 discriminator 7
	bl	schedule
.LVL1598:
.L1378:
	.loc 1 2623 0 discriminator 9
	ldr	x0, [x29, 104]
	add	x1, x29, 112
	mov	w2, 1
	bl	prepare_to_wait_event
.LVL1599:
	ldr	w1, [x25, 52]
	cbnz	w1, .L1667
.L1376:
.LBE2448:
	.loc 1 2623 0 discriminator 4
	ldr	x0, [x29, 104]
	add	x1, x29, 112
	bl	finish_wait
.LVL1600:
	b	.L1375
	.p2align 3
.L1655:
.LBE2447:
.LBE2446:
	.loc 1 2618 0 is_stmt 1
	ldr	x0, [x25, 216]
	ldrsw	x2, [x25, 28]
	ldr	x1, [x0, 16]
	ldr	x0, [x25, 160]
	bl	memcpy
.LVL1601:
	b	.L1597
.LVL1602:
.L1627:
	.loc 1 2678 0
	ldr	x0, [x25, 216]
	ldrsw	x2, [x25, 28]
	ldr	x1, [x25, 160]
	ldr	x0, [x0, 16]
	bl	memcpy
.LVL1603:
	b	.L1391
.LVL1604:
.L1641:
	.loc 1 2561 0 discriminator 1
	cmp	w1, 7
	ccmp	w1, 1, 4, ne
	beq	.L1350
	b	.L1347
.LVL1605:
	.p2align 3
.L1640:
	.loc 1 2560 0 discriminator 1
	cmp	w1, 7
	beq	.L1350
	.loc 1 2563 0
	ldr	w0, [x25, 52]
	cbz	w0, .L1350
	b	.L1668
.LVL1606:
	.p2align 3
.L1362:
.LBB2449:
.LBB2433:
	.loc 1 1623 0
	ldr	x0, [x25, 192]
	mov	x5, x25
	bl	get_overlay_image
.LVL1607:
	b	.L1363
.LVL1608:
.L1653:
.LBE2433:
.LBE2449:
.LBB2450:
.LBB2422:
.LBB2421:
	.loc 1 2744 0 discriminator 9
	orr	w1, w1, w2
.LVL1609:
	cbnz	w1, .L1405
.LVL1610:
	.loc 1 2744 0 is_stmt 0 discriminator 11
	cbnz	x0, .L1404
	.loc 1 2744 0 discriminator 13
	mov	x0, x20
.LVL1611:
	bl	schedule_timeout
.LVL1612:
	mov	x20, x0
.LBE2421:
	b	.L1407
.LVL1613:
.L1650:
.LBE2422:
.LBE2450:
.LBB2451:
.LBB2409:
	.loc 1 2518 0 is_stmt 1 discriminator 1
	mov	w1, 0
	add	x0, x29, 112
	bl	init_wait_entry
.LVL1614:
.LBB2410:
	ldr	x0, [x29, 104]
	add	x1, x29, 112
	mov	w2, 1
	bl	prepare_to_wait_event
.LVL1615:
	ldr	w1, [x25, 52]
	cbz	w1, .L1336
.L1669:
.LVL1616:
	.loc 1 2518 0 is_stmt 0 discriminator 5
	cbnz	x0, .L1335
	.loc 1 2518 0 discriminator 7
	bl	schedule
.LVL1617:
	ldr	x0, [x29, 104]
	add	x1, x29, 112
	mov	w2, 1
	bl	prepare_to_wait_event
.LVL1618:
	ldr	w1, [x25, 52]
	cbnz	w1, .L1669
.L1336:
.LBE2410:
	.loc 1 2518 0 discriminator 4
	ldr	x0, [x29, 104]
	add	x1, x29, 112
	bl	finish_wait
.LVL1619:
	b	.L1335
.LVL1620:
.L1612:
.LBE2409:
.LBE2451:
	.loc 1 2838 0 is_stmt 1
	bl	__stack_chk_fail
.LVL1621:
.L1666:
.LBB2452:
.LBB2442:
	.loc 1 2629 0 discriminator 1
	mov	w1, 0
	add	x0, x29, 112
	bl	init_wait_entry
.LVL1622:
.LBB2443:
	ldr	x0, [x29, 104]
	add	x1, x29, 112
	mov	w2, 1
	bl	prepare_to_wait_event
.LVL1623:
	ldr	w1, [x25, 52]
	cbz	w1, .L1376
.L1670:
.LVL1624:
	.loc 1 2629 0 is_stmt 0 discriminator 5
	cbnz	x0, .L1375
	.loc 1 2629 0 discriminator 7
	bl	schedule
.LVL1625:
	ldr	x0, [x29, 104]
	add	x1, x29, 112
	mov	w2, 1
	bl	prepare_to_wait_event
.LVL1626:
	ldr	w1, [x25, 52]
	cbnz	w1, .L1670
	b	.L1376
.LVL1627:
.L1424:
.LBE2443:
.LBE2442:
.LBE2452:
	.loc 1 2826 0 is_stmt 1
	bl	ebc_get_dsp_list_enum_num
.LVL1628:
	cbnz	w0, .L1255
	.loc 1 2826 0 is_stmt 0 discriminator 1
	bl	ebc_get_osd_list_enum_num
.LVL1629:
	cbnz	w0, .L1255
	b	.L1604
.LVL1630:
.L1663:
	.loc 1 2465 0 is_stmt 1
	mov	x0, 3
	bl	ebc_notify
.LVL1631:
	b	.L1322
.L1646:
.LBB2453:
.LBB2393:
	.loc 1 2565 0 discriminator 1
	mov	w1, 0
	add	x0, x29, 112
	bl	init_wait_entry
.LVL1632:
	b	.L1355
	.p2align 3
.L1671:
.LVL1633:
.LBB2394:
	.loc 1 2565 0 is_stmt 0 discriminator 5
	cbnz	x0, .L1352
	.loc 1 2565 0 discriminator 7
	bl	schedule
.LVL1634:
.L1355:
	.loc 1 2565 0 discriminator 9
	ldr	x0, [x29, 104]
	add	x1, x29, 112
	mov	w2, 1
	bl	prepare_to_wait_event
.LVL1635:
	ldr	w1, [x25, 52]
	cbnz	w1, .L1671
